(lp1
S'36.42.130.149:80'
p2
aS'202.119.25.228:9999'
p3
aS'36.42.135.100:80'
p4
aS'49.94.18.109:80'
p5
aS'54.207.115.1:3333'
p6
aS'14.145.6.233:9797'
p7
aS'117.37.238.106:3128'
p8
aS'113.109.105.76:9797'
p9
aS'111.68.26.202:9876'
p10
aS'183.207.227.8:80'
p11
aS'201.20.177.33:8080'
p12
aS'49.90.3.124:3128'
p13
aS'183.220.245.11:8123'
p14
aS'117.39.168.43:80'
p15
aS'186.95.157.129:9064'
p16
aS'122.225.106.40:80'
p17
aS'180.242.132.173:8080'
p18
aS'125.88.215.122:80'
p19
aS'49.94.30.60:80'
p20
aS'60.223.236.44:9797'
p21
aS'42.236.33.176:80'
p22
aS'183.207.237.11:81'
p23
aS'117.147.238.60:8123'
p24
aS'117.177.243.102:8080'
p25
aS'183.207.227.18:80'
p26
aS'190.185.164.121:9064'
p27
aS'36.97.40.21:80'
p28
aS'27.2.222.3:9064'
p29
aS'14.145.4.150:9797'
p30
aS'118.96.42.150:8080'
p31
aS'36.76.214.199:8080'
p32
aS'82.117.166.251:8080'
p33
aS'117.37.162.128:8123'
p34
aS'183.207.229.17:9000'
p35
aS'114.40.175.67:9064'
p36
aS'49.94.131.54:80'
p37
aS'183.207.227.53:81'
p38
aS'223.99.254.99:86'
p39
aS'183.207.227.39:80'
p40
aS'58.251.240.62:9999'
p41
aS'14.26.14.70:3128'
p42
aS'111.161.126.101:80'
p43
aS'36.72.143.190:8080'
p44
aS'49.91.35.184:80'
p45
a.