(lp1
S'117.177.243.55:82'
p2
aS'183.207.227.41:80'
p3
aS'36.72.154.64:8080'
p4
aS'121.8.69.162:9797'
p5
aS'211.75.31.137:8080'
p6
aS'117.177.243.70:80'
p7
aS'110.78.148.187:8080'
p8
aS'113.74.81.137:9999'
p9
aS'212.126.102.194:8080'
p10
aS'60.5.252.76:80'
p11
aS'117.177.243.58:84'
p12
aS'14.115.26.97:9797'
p13
aS'183.207.227.38:80'
p14
aS'123.194.247.185:9064'
p15
aS'41.67.80.62:8080'
p16
aS'117.177.243.46:8081'
p17
aS'183.207.228.7:8000'
p18
aS'183.207.227.24:8080'
p19
aS'218.65.132.45:80'
p20
aS'117.177.243.73:85'
p21
aS'84.42.3.3:3128'
p22
aS'212.13.49.186:8085'
p23
aS'14.145.7.238:9797'
p24
aS'219.137.229.141:9797'
p25
aS'49.93.209.246:80'
p26
aS'49.90.10.107:3128'
p27
aS'111.254.128.63:9064'
p28
aS'120.198.243.78:80'
p29
aS'111.12.128.172:80'
p30
aS'180.103.155.243:8118'
p31
aS'49.90.25.206:3128'
p32
aS'59.39.193.243:9797'
p33
aS'124.202.217.134:8118'
p34
aS'218.86.137.128:8090'
p35
aS'183.207.228.7:8308'
p36
aS'36.72.230.30:1234'
p37
aS'223.86.33.37:8123'
p38
aS'49.93.216.214:80'
p39
aS'123.167.27.145:3128'
p40
aS'118.97.32.226:8080'
p41
aS'125.88.215.120:80'
p42
aS'186.116.8.170:8080'
p43
aS'183.83.69.159:9064'
p44
aS'117.146.117.159:8080'
p45
aS'80.109.38.15:8080'
p46
aS'49.204.121.130:9064'
p47
aS'113.16.209.109:80'
p48
aS'183.203.208.165:8001'
p49
aS'183.207.228.7:9557'
p50
aS'49.94.128.212:80'
p51
aS'183.207.228.7:9003'
p52
aS'112.26.162.16:8123'
p53
aS'183.142.65.117:8118'
p54
aS'183.207.228.22:83'
p55
aS'1.168.9.181:9064'
p56
aS'183.207.228.7:8239'
p57
aS'218.23.27.18:9797'
p58
aS'183.207.228.22:85'
p59
aS'125.123.86.101:3128'
p60
aS'49.93.228.115:80'
p61
aS'183.207.228.7:8345'
p62
aS'116.55.192.66:8118'
p63
aS'183.207.227.54:8080'
p64
aS'180.254.145.243:8080'
p65
aS'183.32.241.235:8118'
p66
aS'49.90.25.162:80'
p67
aS'183.222.153.221:8123'
p68
aS'106.58.130.72:80'
p69
aS'117.146.116.74:83'
p70
aS'190.38.58.194:8080'
p71
aS'36.237.81.55:9064'
p72
aS'183.207.227.10:80'
p73
aS'183.207.228.51:85'
p74
aS'180.105.187.96:8118'
p75
aS'66.146.193.31:8118'
p76
aS'120.131.128.214:80'
p77
aS'203.187.57.36:9064'
p78
aS'61.236.129.131:3128'
p79
aS'218.26.11.194:8080'
p80
aS'103.27.24.114:8090'
p81
aS'125.24.77.180:8080'
p82
aS'91.217.42.4:8080'
p83
aS'106.34.55.198:80'
p84
aS'190.163.69.195:9064'
p85
aS'117.37.240.110:3128'
p86
aS'49.93.3.79:3128'
p87
aS'183.207.228.7:8284'
p88
aS'208.67.141.157:8080'
p89
aS'183.141.66.185:3128'
p90
aS'123.163.126.48:9000'
p91
aS'183.207.227.51:8080'
p92
aS'183.207.228.44:80'
p93
aS'222.135.218.160:8118'
p94
aS'36.97.6.115:80'
p95
aS'118.97.164.138:8080'
p96
aS'111.161.126.99:80'
p97
aS'106.34.81.158:80'
p98
aS'49.94.19.105:3128'
p99
aS'123.231.229.34:8080'
p100
aS'117.177.243.51:83'
p101
aS'183.207.227.9:80'
p102
aS'69.57.48.251:8080'
p103
aS'183.207.228.7:8888'
p104
aS'122.249.91.211:80'
p105
aS'114.234.231.147:8118'
p106
aS'183.207.229.17:81'
p107
aS'49.94.138.224:80'
p108
aS'171.37.218.204:8090'
p109
aS'125.24.77.23:8080'
p110
aS'180.95.200.187:9797'
p111
aS'58.54.107.195:8118'
p112
aS'115.118.231.223:9064'
p113
aS'183.207.229.133:80'
p114
aS'36.77.180.202:8080'
p115
aS'186.92.206.104:9064'
p116
aS'183.222.158.136:8123'
p117
aS'203.146.109.101:9064'
p118
aS'183.207.228.9:61616'
p119
aS'117.177.182.114:8123'
p120
aS'111.47.92.226:8080'
p121
aS'49.94.130.249:3128'
p122
aS'49.90.22.45:80'
p123
aS'54.207.83.64:3333'
p124
aS'189.89.159.122:8181'
p125
aS'91.188.39.232:8888'
p126
aS'199.200.120.36:7808'
p127
aS'50.22.206.179:8080'
p128
aS'190.214.48.125:8080'
p129
aS'183.141.75.85:3128'
p130
aS'27.3.158.184:9064'
p131
aS'117.177.243.55:84'
p132
aS'117.177.243.35:83'
p133
aS'220.190.114.73:8118'
p134
aS'124.235.15.72:8118'
p135
aS'163.125.156.160:8888'
p136
aS'190.38.26.115:9064'
p137
aS'183.207.228.7:9529'
p138
aS'183.40.96.106:3128'
p139
aS'121.33.221.146:9797'
p140
aS'46.183.102.163:8081'
p141
aS'218.59.144.120:81'
p142
aS'49.94.150.144:3128'
p143
aS'49.90.21.230:80'
p144
aS'183.207.232.193:8080'
p145
aS'88.200.203.54:8080'
p146
aS'183.223.192.59:8123'
p147
aS'183.207.229.19:81'
p148
aS'49.90.33.103:80'
p149
aS'113.190.226.61:9064'
p150
aS'122.96.230.194:8118'
p151
aS'193.30.251.5:8080'
p152
aS'117.177.243.58:81'
p153
aS'61.93.246.50:8080'
p154
aS'123.167.41.72:80'
p155
aS'122.72.124.42:80'
p156
aS'183.222.152.237:8123'
p157
aS'183.207.228.123:80'
p158
aS'120.132.71.232:80'
p159
aS'213.46.138.195:9064'
p160
aS'49.94.3.58:3128'
p161
aS'211.139.45.115:8123'
p162
aS'49.207.72.144:9064'
p163
aS'58.65.241.226:8080'
p164
aS'193.151.135.3:8080'
p165
aS'49.79.45.230:8118'
p166
aS'49.94.26.153:80'
p167
aS'106.34.153.188:80'
p168
aS'49.94.138.238:80'
p169
aS'202.152.42.5:8080'
p170
aS'183.207.224.50:84'
p171
aS'112.104.135.194:9064'
p172
aS'60.26.82.188:8118'
p173
aS'163.125.70.200:8888'
p174
aS'116.113.152.71:8118'
p175
aS'117.135.244.38:80'
p176
aS'222.247.182.34:9999'
p177
aS'49.93.214.158:3128'
p178
aS'125.88.215.119:80'
p179
aS'183.222.159.27:8123'
p180
aS'183.207.228.7:8817'
p181
aS'183.207.227.46:8080'
p182
aS'111.12.128.135:80'
p183
aS'183.207.228.7:82'
p184
aS'89.190.195.170:8080'
p185
aS'39.190.107.134:8123'
p186
aS'183.207.228.7:9058'
p187
aS'161.246.248.118:9064'
p188
aS'189.89.159.122:47037'
p189
aS'221.181.6.52:80'
p190
aS'117.176.4.219:8123'
p191
aS'183.207.228.7:8429'
p192
aS'120.198.243.111:80'
p193
aS'177.69.93.237:8080'
p194
aS'123.30.9.53:8080'
p195
aS'182.52.63.56:8080'
p196
aS'42.236.33.179:80'
p197
aS'123.110.216.34:9064'
p198
aS'49.94.155.212:3128'
p199
aS'190.121.148.166:8080'
p200
aS'117.211.95.30:9064'
p201
aS'46.45.76.66:8080'
p202
aS'117.177.243.53:80'
p203
aS'183.207.228.7:8237'
p204
aS'200.41.226.60:3129'
p205
aS'110.49.210.215:80'
p206
aS'117.177.243.36:81'
p207
aS'223.15.51.106:80'
p208
aS'202.166.173.219:8080'
p209
aS'117.37.250.178:80'
p210
aS'183.207.228.7:9599'
p211
aS'49.94.147.117:80'
p212
aS'111.199.120.217:8118'
p213
aS'27.159.204.130:8118'
p214
aS'173.80.239.30:9064'
p215
aS'106.58.109.160:80'
p216
aS'117.177.243.26:80'
p217
aS'221.226.2.254:1209'
p218
aS'110.4.12.173:80'
p219
aS'94.200.195.218:8080'
p220
aS'49.91.45.104:3128'
p221
aS'171.82.95.30:80'
p222
aS'197.210.229.74:8080'
p223
aS'183.140.167.198:3128'
p224
aS'195.114.129.169:3128'
p225
aS'111.40.194.42:80'
p226
aS'120.198.243.115:80'
p227
aS'14.24.82.61:3128'
p228
aS'49.93.35.122:3128'
p229
aS'115.228.108.70:3128'
p230
aS'77.81.105.147:7808'
p231
aS'222.45.196.46:8118'
p232
aS'119.167.78.42:9797'
p233
aS'58.99.37.79:9064'
p234
aS'211.144.81.66:18000'
p235
aS'194.44.221.137:8080'
p236
aS'49.94.22.195:3128'
p237
aS'186.225.53.22:8080'
p238
aS'54.207.114.255:3333'
p239
aS'117.173.20.249:8123'
p240
aS'201.55.143.45:8080'
p241
aS'116.213.51.90:8080'
p242
aS'103.17.173.25:8080'
p243
aS'95.130.35.106:8080'
p244
aS'125.85.33.36:80'
p245
aS'183.207.228.7:8184'
p246
aS'222.191.246.245:3128'
p247
aS'220.167.251.194:8118'
p248
aS'120.198.243.83:80'
p249
aS'27.2.37.32:9064'
p250
aS'116.68.255.211:8080'
p251
aS'49.94.154.204:80'
p252
aS'27.2.215.31:9064'
p253
aS'190.37.170.247:9064'
p254
aS'111.235.73.106:9064'
p255
aS'197.37.97.15:8080'
p256
aS'123.205.4.111:9064'
p257
aS'117.177.243.36:8081'
p258
aS'115.43.169.194:9064'
p259
aS'49.94.28.126:80'
p260
aS'182.92.240.197:8080'
p261
aS'183.207.228.7:9985'
p262
aS'183.223.194.240:8123'
p263
aS'190.206.236.66:9064'
p264
aS'177.184.198.1:8080'
p265
aS'113.200.27.82:9000'
p266
aS'202.62.65.78:8888'
p267
aS'119.128.182.203:9797'
p268
aS'27.3.71.171:9064'
p269
aS'183.141.76.146:3128'
p270
aS'222.191.246.243:3128'
p271
aS'49.91.34.50:80'
p272
aS'54.149.140.105:3128'
p273
aS'203.83.172.94:8080'
p274
aS'49.93.230.113:3128'
p275
aS'181.143.226.90:8080'
p276
aS'183.223.169.61:8123'
p277
aS'183.223.197.193:8123'
p278
aS'60.52.6.185:9064'
p279
aS'101.71.27.27:8000'
p280
aS'14.218.172.155:9797'
p281
aS'112.237.174.67:8118'
p282
aS'106.60.31.76:80'
p283
aS'183.136.135.153:8080'
p284
aS'222.59.246.38:8118'
p285
aS'123.115.50.7:8118'
p286
aS'14.115.64.4:9797'
p287
aS'124.202.182.162:8118'
p288
aS'49.94.16.43:3128'
p289
aS'49.91.13.53:3128'
p290
aS'116.9.128.210:8118'
p291
aS'58.251.132.181:8888'
p292
aS'61.7.134.238:8080'
p293
aS'103.244.241.112:3129'
p294
aS'49.93.227.222:80'
p295
aS'183.207.237.11:82'
p296
aS'49.93.36.62:3128'
p297
aS'183.207.228.7:8047'
p298
aS'183.207.224.51:82'
p299
aS'14.25.237.171:3128'
p300
aS'183.207.228.9:81'
p301
aS'49.94.8.15:3128'
p302
aS'221.5.69.51:80'
p303
aS'183.207.228.7:8007'
p304
aS'117.177.243.36:8080'
p305
aS'218.18.109.186:9000'
p306
aS'1.168.91.198:9064'
p307
aS'117.177.243.104:80'
p308
aS'124.8.136.241:9064'
p309
aS'111.242.190.34:9064'
p310
aS'183.207.229.17:80'
p311
aS'49.91.42.14:3128'
p312
aS'94.100.63.2:8080'
p313
aS'117.177.243.36:86'
p314
aS'103.226.174.12:8080'
p315
aS'200.93.255.18:8080'
p316
aS'49.94.28.125:3128'
p317
aS'190.39.102.125:9064'
p318
aS'183.207.228.7:9100'
p319
aS'183.223.200.209:8123'
p320
aS'221.220.188.95:9000'
p321
aS'1.172.137.31:9064'
p322
aS'110.49.211.1:8080'
p323
aS'117.177.243.53:86'
p324
aS'49.91.38.194:80'
p325
aS'122.96.59.106:81'
p326
aS'36.41.46.99:80'
p327
aS'221.178.99.66:8123'
p328
aS'88.150.136.181:3129'
p329
aS'49.90.5.161:80'
p330
aS'183.23.64.227:9999'
p331
aS'183.141.77.83:3128'
p332
aS'183.207.228.7:8051'
p333
aS'190.207.35.231:9064'
p334
aS'117.177.243.41:81'
p335
aS'36.77.127.16:8080'
p336
aS'216.109.9.77:8080'
p337
aS'119.125.91.46:9797'
p338
aS'190.121.148.243:8080'
p339
aS'183.207.228.7:81'
p340
aS'183.207.228.41:80'
p341
aS'62.176.13.22:8088'
p342
aS'117.146.116.74:82'
p343
aS'117.177.243.51:8082'
p344
aS'49.94.155.167:80'
p345
aS'117.177.243.105:81'
p346
aS'112.22.155.80:8123'
p347
aS'49.93.214.132:3128'
p348
aS'223.67.210.90:8123'
p349
aS'183.207.224.44:80'
p350
aS'60.223.236.44:9797'
p351
aS'49.90.25.162:3128'
p352
aS'187.174.84.2:8080'
p353
aS'154.73.44.173:8080'
p354
aS'223.99.254.99:8080'
p355
aS'59.149.172.89:9064'
p356
aS'14.145.7.228:9797'
p357
aS'211.141.230.23:9797'
p358
aS'123.205.110.55:9064'
p359
aS'183.207.228.7:9485'
p360
aS'200.84.84.96:9064'
p361
aS'115.28.85.240:8088'
p362
aS'190.235.235.185:8080'
p363
aS'183.93.18.119:8118'
p364
aS'117.177.147.107:8123'
p365
aS'49.91.24.124:80'
p366
aS'183.222.152.111:8123'
p367
aS'117.177.243.71:80'
p368
aS'113.112.153.3:3128'
p369
aS'125.24.77.168:8080'
p370
aS'36.74.103.98:8080'
p371
aS'183.207.228.7:8720'
p372
aS'183.207.227.49:80'
p373
aS'58.247.70.124:8090'
p374
aS'117.85.145.164:8585'
p375
aS'123.190.46.20:8080'
p376
aS'49.94.152.156:80'
p377
aS'77.37.154.107:8000'
p378
aS'106.58.191.171:80'
p379
aS'119.233.248.6:8080'
p380
aS'59.105.185.110:9064'
p381
aS'119.233.230.82:80'
p382
aS'42.236.33.178:80'
p383
aS'183.207.228.50:84'
p384
aS'117.177.243.29:80'
p385
aS'120.198.243.116:80'
p386
aS'59.102.133.174:9064'
p387
aS'60.209.20.90:9797'
p388
aS'113.247.204.113:9797'
p389
aS'186.46.160.125:8080'
p390
aS'49.94.147.119:80'
p391
aS'24.155.238.212:8089'
p392
aS'117.177.243.46:83'
p393
aS'113.99.188.25:9999'
p394
aS'117.139.44.104:8123'
p395
aS'183.223.200.90:8123'
p396
aS'179.57.38.113:9064'
p397
aS'49.91.13.195:80'
p398
aS'114.252.109.114:8118'
p399
aS'111.13.136.56:80'
p400
aS'58.114.124.101:9064'
p401
aS'120.6.235.133:8118'
p402
aS'121.13.242.2:9797'
p403
aS'183.207.228.22:82'
p404
aS'101.82.240.86:8118'
p405
aS'120.209.195.73:8123'
p406
aS'183.91.81.114:8081'
p407
aS'183.207.228.7:8040'
p408
aS'14.98.55.163:9064'
p409
aS'183.207.228.7:8028'
p410
aS'49.65.230.230:8118'
p411
aS'14.29.180.192:9797'
p412
aS'123.240.191.73:9064'
p413
aS'202.107.192.132:8118'
p414
aS'58.251.241.61:9999'
p415
aS'186.208.255.14:80'
p416
aS'49.94.26.183:3128'
p417
aS'219.223.189.204:3128'
p418
aS'111.243.66.30:9064'
p419
aS'106.58.118.161:80'
p420
aS'178.219.248.15:8080'
p421
aS'190.206.225.41:9064'
p422
aS'113.103.205.153:8118'
p423
aS'183.207.228.7:8014'
p424
aS'14.155.224.147:9797'
p425
aS'183.207.224.51:83'
p426
aS'78.157.209.36:3129'
p427
aS'60.161.0.189:8090'
p428
aS'121.31.112.71:9999'
p429
aS'210.212.128.245:8080'
p430
aS'27.46.20.224:8888'
p431
aS'219.156.245.80:8118'
p432
aS'175.136.38.140:8080'
p433
aS'49.94.135.251:80'
p434
aS'110.74.200.246:8080'
p435
aS'112.197.36.41:9064'
p436
aS'49.93.37.87:80'
p437
aS'115.148.196.142:8118'
p438
aS'59.61.79.124:8118'
p439
aS'117.177.243.73:83'
p440
aS'60.251.242.122:9064'
p441
aS'117.177.240.43:80'
p442
aS'84.22.32.222:3128'
p443
aS'49.93.23.129:3128'
p444
aS'117.37.249.184:80'
p445
aS'223.85.95.238:8123'
p446
aS'192.3.91.98:8080'
p447
aS'103.15.62.204:9064'
p448
aS'49.90.40.51:80'
p449
aS'183.207.229.137:8000'
p450
aS'36.42.142.60:3128'
p451
aS'190.37.132.75:9064'
p452
aS'49.94.16.168:80'
p453
aS'181.67.173.204:8080'
p454
aS'125.24.78.250:80'
p455
aS'220.143.11.55:9064'
p456
aS'123.108.10.50:8080'
p457
aS'183.207.224.51:85'
p458
aS'80.232.165.88:8080'
p459
aS'49.94.152.107:80'
p460
aS'125.24.77.83:80'
p461
aS'183.41.117.218:3128'
p462
aS'113.141.137.64:80'
p463
aS'60.178.71.44:9000'
p464
aS'201.248.99.173:9064'
p465
aS'164.115.226.153:8080'
p466
aS'113.193.98.222:9064'
p467
aS'120.198.243.114:80'
p468
aS'59.97.74.211:9064'
p469
aS'36.231.39.206:9064'
p470
aS'183.207.229.137:9001'
p471
aS'122.72.33.237:80'
p472
aS'49.93.41.170:80'
p473
aS'190.78.157.223:9064'
p474
aS'120.198.243.53:80'
p475
aS'36.236.147.182:9064'
p476
aS'123.134.196.238:8118'
p477
aS'106.34.124.153:80'
p478
aS'183.222.154.248:8123'
p479
aS'49.94.159.231:80'
p480
aS'41.78.27.141:8080'
p481
aS'112.115.137.159:8118'
p482
aS'61.162.179.78:8118'
p483
aS'49.94.131.54:80'
p484
aS'183.220.247.105:8123'
p485
aS'125.77.93.172:8118'
p486
aS'119.141.124.235:9797'
p487
aS'27.195.3.45:9797'
p488
aS'117.177.243.68:83'
p489
aS'183.207.228.7:8789'
p490
aS'117.177.243.58:83'
p491
aS'189.83.219.122:8080'
p492
aS'113.140.98.171:80'
p493
aS'117.175.109.177:8123'
p494
aS'183.207.228.7:8755'
p495
aS'49.93.35.189:3128'
p496
aS'123.167.118.29:80'
p497
aS'114.83.125.202:9797'
p498
aS'183.207.228.7:8130'
p499
aS'49.212.149.218:18080'
p500
aS'117.177.243.50:86'
p501
aS'183.220.240.120:8123'
p502
aS'210.6.173.34:9064'
p503
aS'49.91.4.246:3128'
p504
aS'1.186.11.182:9064'
p505
aS'218.4.236.117:80'
p506
aS'14.155.224.147:9999'
p507
aS'112.18.182.23:8123'
p508
aS'112.44.88.76:8123'
p509
aS'163.125.146.167:9797'
p510
aS'175.43.20.95:80'
p511
aS'183.207.228.7:9245'
p512
aS'49.94.11.70:3128'
p513
aS'183.185.131.161:9797'
p514
aS'49.93.216.165:80'
p515
aS'110.155.104.201:8118'
p516
aS'27.148.16.214:3128'
p517
aS'61.219.98.208:9064'
p518
aS'117.177.243.67:82'
p519
aS'183.207.227.40:80'
p520
aS'117.177.243.50:8080'
p521
aS'91.98.133.214:8080'
p522
aS'49.94.133.213:3128'
p523
aS'183.207.227.20:80'
p524
aS'49.93.203.148:3128'
p525
aS'49.91.38.62:80'
p526
aS'183.140.165.78:3128'
p527
aS'187.254.212.91:8080'
p528
aS'117.211.148.127:9064'
p529
aS'85.109.128.232:8080'
p530
aS'202.143.131.253:9064'
p531
aS'117.177.243.46:81'
p532
aS'14.157.155.114:9999'
p533
aS'36.81.1.151:8080'
p534
aS'124.192.220.118:8118'
p535
aS'117.173.22.15:8123'
p536
aS'115.241.63.165:9064'
p537
aS'125.39.66.149:80'
p538
aS'49.91.22.242:80'
p539
aS'60.219.143.156:8118'
p540
aS'117.177.243.100:81'
p541
aS'114.232.119.235:8118'
p542
aS'189.42.193.132:8080'
p543
aS'115.228.49.247:3128'
p544
aS'113.141.135.245:3128'
p545
aS'190.73.138.210:9064'
p546
aS'183.207.228.58:80'
p547
aS'106.58.211.28:80'
p548
aS'222.191.246.248:3128'
p549
aS'117.177.243.69:82'
p550
aS'117.139.45.44:8123'
p551
aS'1.186.143.253:9064'
p552
aS'84.117.14.92:9064'
p553
aS'54.207.95.90:3333'
p554
aS'219.135.193.220:8090'
p555
aS'49.91.7.111:3128'
p556
aS'46.253.135.237:8080'
p557
aS'180.250.250.92:8080'
p558
aS'107.170.247.95:9999'
p559
aS'183.207.229.139:80'
p560
aS'49.93.200.169:3128'
p561
aS'1.23.134.190:9064'
p562
aS'223.27.213.202:8080'
p563
aS'122.225.117.26:80'
p564
aS'124.115.211.30:9999'
p565
aS'27.200.89.238:9797'
p566
aS'139.0.16.202:8080'
p567
aS'36.72.132.52:8080'
p568
aS'49.91.32.37:80'
p569
aS'161.246.13.241:9064'
p570
aS'59.126.249.131:9064'
p571
aS'36.42.149.71:80'
p572
aS'103.251.191.210:9064'
p573
aS'1.171.240.222:9064'
p574
aS'49.94.137.153:3128'
p575
aS'27.38.213.193:9797'
p576
aS'49.90.5.165:80'
p577
aS'183.141.72.166:3128'
p578
aS'36.42.145.158:3128'
p579
aS'110.77.236.184:8080'
p580
aS'49.94.132.5:3128'
p581
aS'182.206.134.218:80'
p582
aS'111.12.128.167:80'
p583
aS'182.205.204.178:3128'
p584
aS'190.25.225.75:8080'
p585
aS'117.37.238.106:3128'
p586
aS'182.205.4.68:80'
p587
aS'186.95.143.174:9064'
p588
aS'36.227.227.39:9064'
p589
aS'123.194.252.58:9064'
p590
aS'94.181.34.64:80'
p591
aS'111.1.36.10:80'
p592
aS'118.97.45.6:9064'
p593
aS'218.28.170.202:8080'
p594
aS'223.67.76.156:8123'
p595
aS'58.153.217.121:80'
p596
aS'183.141.72.72:3128'
p597
aS'183.222.155.229:8123'
p598
aS'27.28.243.154:9000'
p599
aS'113.104.25.0:9797'
p600
aS'113.140.99.189:3128'
p601
aS'183.207.229.137:88'
p602
aS'218.5.74.174:80'
p603
aS'49.90.31.96:80'
p604
aS'49.67.80.253:8118'
p605
aS'112.26.162.5:8123'
p606
aS'49.90.22.69:3128'
p607
aS'183.207.228.7:9001'
p608
aS'183.222.154.93:8123'
p609
aS'125.82.121.52:8118'
p610
aS'183.207.227.7:80'
p611
aS'189.42.193.133:8080'
p612
aS'14.207.241.80:9064'
p613
aS'182.87.42.241:8118'
p614
aS'49.91.45.59:80'
p615
aS'110.5.76.109:8080'
p616
aS'27.9.15.161:8118'
p617
aS'61.175.207.131:9797'
p618
aS'197.85.176.73:8080'
p619
aS'183.222.152.163:8123'
p620
aS'117.177.243.41:80'
p621
aS'183.207.228.50:83'
p622
aS'183.207.228.60:80'
p623
aS'222.95.18.22:8118'
p624
aS'183.207.229.139:8090'
p625
aS'218.9.69.2:9797'
p626
aS'61.176.224.98:8118'
p627
aS'183.207.228.7:8525'
p628
aS'163.125.156.177:8888'
p629
aS'183.207.228.7:61616'
p630
aS'183.207.227.54:80'
p631
aS'49.93.38.149:80'
p632
aS'117.37.240.228:3128'
p633
aS'14.218.217.51:9797'
p634
aS'106.36.214.167:8118'
p635
aS'111.185.52.84:9064'
p636
aS'49.94.8.58:3128'
p637
aS'54.207.41.15:3333'
p638
aS'117.177.243.42:86'
p639
aS'111.1.36.166:80'
p640
aS'58.67.136.92:8080'
p641
aS'180.247.77.97:8080'
p642
aS'27.192.40.69:8090'
p643
aS'117.214.63.241:9064'
p644
aS'49.93.208.179:3128'
p645
aS'49.94.147.108:80'
p646
aS'186.93.2.129:9064'
p647
aS'36.237.222.185:9064'
p648
aS'125.39.66.68:80'
p649
aS'58.253.238.242:80'
p650
aS'180.250.100.90:8080'
p651
aS'183.207.229.137:8001'
p652
aS'202.53.254.99:8080'
p653
aS'84.72.142.174:3128'
p654
aS'183.207.229.138:8001'
p655
aS'121.31.112.87:9797'
p656
aS'163.125.202.28:9797'
p657
aS'221.211.215.180:8118'
p658
aS'201.209.78.197:8080'
p659
aS'1.23.129.245:9064'
p660
aS'27.46.20.254:8888'
p661
aS'121.34.147.74:9999'
p662
aS'222.87.129.218:83'
p663
aS'49.94.163.70:80'
p664
aS'183.223.197.235:8123'
p665
aS'210.101.131.231:8080'
p666
aS'183.220.247.86:8123'
p667
aS'54.84.90.174:8080'
p668
aS'124.202.169.226:8118'
p669
aS'36.44.41.133:8080'
p670
aS'49.94.146.154:3128'
p671
aS'182.253.178.162:8080'
p672
aS'119.188.94.145:80'
p673
aS'200.47.142.182:8080'
p674
aS'183.211.77.72:8123'
p675
aS'190.203.102.90:8080'
p676
aS'49.91.19.100:80'
p677
aS'117.177.243.109:80'
p678
aS'195.5.109.243:8080'
p679
aS'114.96.253.148:8118'
p680
aS'185.33.33.132:8080'
p681
aS'117.177.243.69:86'
p682
aS'200.215.166.5:8080'
p683
aS'49.90.23.117:80'
p684
aS'123.30.75.115:80'
p685
aS'111.12.128.171:80'
p686
aS'49.94.3.12:3128'
p687
aS'218.95.50.28:9000'
p688
aS'202.138.240.201:8080'
p689
aS'183.207.228.7:8046'
p690
aS'113.141.130.250:80'
p691
aS'49.93.197.161:80'
p692
aS'36.83.29.212:8080'
p693
aS'154.73.44.177:8080'
p694
aS'110.244.111.135:9797'
p695
aS'36.232.91.211:9064'
p696
aS'117.176.26.226:8123'
p697
aS'200.192.248.94:8080'
p698
aS'49.94.149.117:80'
p699
aS'123.231.225.86:8080'
p700
aS'116.75.56.226:9064'
p701
aS'185.33.33.133:8080'
p702
aS'58.46.175.252:8118'
p703
aS'5.56.12.5:8080'
p704
aS'200.123.180.145:8080'
p705
aS'190.199.212.245:9064'
p706
aS'58.251.249.181:9797'
p707
aS'117.177.183.90:8123'
p708
aS'112.18.185.165:8123'
p709
aS'183.207.227.17:8080'
p710
aS'183.141.64.134:3128'
p711
aS'49.93.2.237:80'
p712
aS'218.75.205.72:9999'
p713
aS'201.243.35.9:9064'
p714
aS'218.188.16.123:8080'
p715
aS'118.136.61.73:9064'
p716
aS'49.93.227.42:80'
p717
aS'139.0.69.181:8080'
p718
aS'178.76.129.69:8080'
p719
aS'113.141.137.186:80'
p720
aS'110.139.142.3:8080'
p721
aS'91.185.16.170:8080'
p722
aS'183.141.70.131:3128'
p723
aS'123.110.207.239:9064'
p724
aS'163.125.199.70:8888'
p725
aS'183.207.237.18:86'
p726
aS'151.237.84.46:8081'
p727
aS'5.160.85.228:8080'
p728
aS'177.55.254.49:8080'
p729
aS'123.52.130.52:9797'
p730
aS'27.147.168.151:9064'
p731
aS'191.7.194.168:8080'
p732
aS'117.172.78.108:8123'
p733
aS'120.84.174.34:8118'
p734
aS'117.177.243.55:8080'
p735
aS'123.157.97.51:8080'
p736
aS'106.51.149.207:9064'
p737
aS'49.93.212.111:3128'
p738
aS'119.134.50.28:9797'
p739
aS'220.225.144.241:9064'
p740
aS'123.167.96.72:3128'
p741
aS'183.207.227.38:8080'
p742
aS'201.211.204.176:8080'
p743
aS'183.207.227.41:81'
p744
aS'49.93.21.23:80'
p745
aS'117.177.46.4:8123'
p746
aS'112.249.124.114:8118'
p747
aS'187.40.30.52:8080'
p748
aS'49.93.22.180:80'
p749
aS'210.242.67.169:80'
p750
aS'183.212.64.208:8123'
p751
aS'120.198.243.14:80'
p752
aS'218.75.205.57:9797'
p753
aS'163.125.185.205:9797'
p754
aS'36.61.252.209:3128'
p755
aS'49.91.20.43:80'
p756
aS'186.92.65.163:8080'
p757
aS'183.203.208.171:8118'
p758
aS'117.176.26.193:8123'
p759
aS'49.90.3.57:80'
p760
aS'183.223.193.219:8123'
p761
aS'183.220.247.217:8123'
p762
aS'175.3.185.159:8118'
p763
aS'183.230.114.7:8123'
p764
aS'49.90.29.146:80'
p765
aS'49.90.18.55:80'
p766
aS'115.244.224.72:9064'
p767
aS'117.177.243.112:82'
p768
aS'117.177.243.36:82'
p769
aS'190.199.198.88:9064'
p770
aS'117.177.243.114:82'
p771
aS'114.34.173.179:9064'
p772
aS'222.87.129.218:843'
p773
aS'42.97.180.180:80'
p774
aS'183.220.106.45:8123'
p775
aS'183.207.228.7:8125'
p776
aS'58.210.122.11:9797'
p777
aS'27.149.97.5:3128'
p778
aS'49.91.8.162:80'
p779
aS'218.64.46.152:8090'
p780
aS'91.238.231.226:80'
p781
aS'49.93.214.65:3128'
p782
aS'163.142.73.27:8080'
p783
aS'1.202.150.116:8080'
p784
aS'49.93.17.219:3128'
p785
aS'163.125.253.152:9797'
p786
aS'183.207.228.7:8780'
p787
aS'222.45.212.130:8118'
p788
aS'49.94.29.243:80'
p789
aS'120.82.169.215:9999'
p790
aS'101.4.60.47:80'
p791
aS'117.37.242.116:3128'
p792
aS'101.86.9.85:9999'
p793
aS'183.220.246.185:8123'
p794
aS'117.177.243.14:81'
p795
aS'123.167.110.210:80'
p796
aS'117.177.243.35:80'
p797
aS'117.172.76.185:8123'
p798
aS'49.93.196.168:80'
p799
aS'115.98.249.103:9064'
p800
aS'36.97.40.21:80'
p801
aS'49.90.14.110:80'
p802
aS'111.40.194.104:80'
p803
aS'115.242.215.31:9064'
p804
aS'190.206.141.225:9064'
p805
aS'36.232.167.81:8088'
p806
aS'200.112.188.122:9064'
p807
aS'139.195.36.45:8080'
p808
aS'110.49.211.11:80'
p809
aS'101.128.101.147:8080'
p810
aS'110.176.190.17:3128'
p811
aS'49.94.5.63:3128'
p812
aS'41.142.242.58:80'
p813
aS'59.124.241.199:8080'
p814
aS'121.243.51.107:80'
p815
aS'23.94.123.158:8080'
p816
aS'117.177.243.55:81'
p817
aS'117.177.243.26:84'
p818
aS'58.215.185.46:82'
p819
aS'201.209.2.181:9064'
p820
aS'117.177.243.47:8080'
p821
aS'221.193.254.133:9999'
p822
aS'189.89.159.122:2368'
p823
aS'58.50.218.190:9999'
p824
aS'36.42.129.76:80'
p825
aS'203.189.148.53:8080'
p826
aS'61.158.173.188:9797'
p827
aS'202.143.150.118:8080'
p828
aS'113.27.220.90:3128'
p829
aS'49.91.38.190:3128'
p830
aS'182.235.29.145:9064'
p831
aS'117.177.243.105:8080'
p832
aS'221.135.97.98:9064'
p833
aS'4.59.119.86:8084'
p834
aS'41.79.92.161:8080'
p835
aS'14.26.161.167:3128'
p836
aS'139.226.112.39:8090'
p837
aS'137.135.166.225:8123'
p838
aS'183.207.228.7:8998'
p839
aS'49.94.18.109:80'
p840
aS'124.202.182.22:8118'
p841
aS'49.94.149.50:80'
p842
aS'218.59.144.120:80'
p843
aS'117.177.226.173:8123'
p844
aS'103.18.220.69:8080'
p845
aS'182.253.40.148:8080'
p846
aS'122.237.11.164:8118'
p847
aS'183.178.251.125:9064'
p848
aS'197.249.79.28:8080'
p849
aS'49.91.45.253:3128'
p850
aS'221.222.211.42:8118'
p851
aS'106.33.157.25:80'
p852
aS'36.237.52.35:9064'
p853
aS'49.91.28.23:3128'
p854
aS'183.207.228.7:8625'
p855
aS'115.228.49.65:3128'
p856
aS'183.207.224.52:81'
p857
aS'111.235.66.165:8080'
p858
aS'190.122.186.228:8080'
p859
aS'120.197.53.195:9797'
p860
aS'110.176.96.144:80'
p861
aS'42.201.225.21:8080'
p862
aS'117.177.243.3:8080'
p863
aS'106.51.176.244:9064'
p864
aS'123.246.212.125:8118'
p865
aS'124.113.52.99:8118'
p866
aS'116.252.253.121:9797'
p867
aS'31.7.227.10:8080'
p868
aS'113.207.130.166:80'
p869
aS'182.118.23.7:8081'
p870
aS'190.36.218.221:9064'
p871
aS'49.94.20.220:80'
p872
aS'36.43.193.29:80'
p873
aS'171.82.89.105:80'
p874
aS'220.134.98.120:8088'
p875
aS'111.164.223.7:8118'
p876
aS'183.222.153.18:8123'
p877
aS'183.207.228.7:8033'
p878
aS'183.141.67.48:3128'
p879
aS'49.94.152.70:80'
p880
aS'112.18.195.228:8123'
p881
aS'49.93.31.208:3128'
p882
aS'116.50.27.34:8080'
p883
aS'115.231.96.120:80'
p884
aS'49.91.45.4:3128'
p885
aS'186.213.180.251:9064'
p886
aS'218.29.155.198:9999'
p887
aS'180.250.95.41:8080'
p888
aS'1.186.113.68:9064'
p889
aS'49.90.7.178:80'
p890
aS'178.18.68.178:8080'
p891
aS'202.181.122.53:8118'
p892
aS'222.124.218.83:8080'
p893
aS'117.177.243.100:8080'
p894
aS'203.82.193.202:8080'
p895
aS'42.2.186.225:9064'
p896
aS'116.7.106.9:9797'
p897
aS'119.103.85.158:3128'
p898
aS'183.207.228.50:82'
p899
aS'223.15.71.54:80'
p900
aS'183.221.217.105:8123'
p901
aS'14.27.136.196:3128'
p902
aS'49.93.40.235:80'
p903
aS'200.84.144.231:9064'
p904
aS'183.207.228.7:80'
p905
aS'119.148.23.237:8080'
p906
aS'88.119.141.96:8080'
p907
aS'60.174.241.227:3128'
p908
aS'103.241.225.1:9064'
p909
aS'49.94.23.104:3128'
p910
aS'124.88.67.13:80'
p911
aS'180.153.100.242:85'
p912
aS'112.64.31.78:8090'
p913
aS'183.207.228.7:8338'
p914
aS'122.99.102.132:9064'
p915
aS'114.40.175.67:9064'
p916
aS'183.140.162.19:3128'
p917
aS'120.27.42.246:8118'
p918
aS'183.141.73.4:3128'
p919
aS'36.41.41.76:3128'
p920
aS'209.177.93.6:80'
p921
aS'183.222.155.199:8123'
p922
aS'110.176.147.198:3128'
p923
aS'111.248.148.189:8088'
p924
aS'114.255.183.189:8080'
p925
aS'49.91.15.95:3128'
p926
aS'113.27.140.42:3128'
p927
aS'183.207.228.7:9070'
p928
aS'49.90.36.63:80'
p929
aS'60.13.74.183:80'
p930
aS'219.143.90.20:9000'
p931
aS'183.222.155.54:8123'
p932
aS'114.35.134.253:9064'
p933
aS'117.176.9.179:8123'
p934
aS'183.40.151.137:3128'
p935
aS'200.109.230.139:80'
p936
aS'46.59.77.22:8080'
p937
aS'113.77.204.19:9797'
p938
aS'5.164.26.62:8080'
p939
aS'121.31.112.80:9999'
p940
aS'182.206.136.36:80'
p941
aS'49.91.42.53:80'
p942
aS'49.90.2.96:80'
p943
aS'123.167.88.180:80'
p944
aS'222.175.59.218:9797'
p945
aS'27.149.44.48:3128'
p946
aS'110.176.233.254:3128'
p947
aS'54.207.90.219:3333'
p948
aS'36.42.137.229:80'
p949
aS'117.177.243.37:82'
p950
aS'117.177.243.71:8080'
p951
aS'117.177.243.58:86'
p952
aS'103.17.36.129:8080'
p953
aS'120.198.243.115:8088'
p954
aS'117.139.39.128:8123'
p955
aS'123.125.19.44:80'
p956
aS'49.91.42.14:80'
p957
aS'49.94.144.81:80'
p958
aS'49.94.147.91:80'
p959
aS'113.113.88.147:3128'
p960
aS'42.48.26.20:8118'
p961
aS'183.140.163.89:3128'
p962
aS'190.206.74.32:9064'
p963
aS'36.73.66.101:8080'
p964
aS'114.248.221.225:8118'
p965
aS'183.220.239.167:8123'
p966
aS'182.23.33.26:8080'
p967
aS'113.112.250.101:3128'
p968
aS'125.123.219.83:8118'
p969
aS'175.176.165.178:8080'
p970
aS'14.154.137.46:9797'
p971
aS'106.58.200.44:80'
p972
aS'60.213.189.170:3988'
p973
aS'183.207.229.137:8088'
p974
aS'117.177.243.102:8080'
p975
aS'183.207.228.7:8096'
p976
aS'115.124.74.178:8080'
p977
aS'183.223.32.5:8123'
p978
aS'36.238.224.98:9064'
p979
aS'190.147.199.148:8080'
p980
aS'165.24.10.16:8080'
p981
aS'189.82.52.15:8080'
p982
aS'41.191.216.142:8080'
p983
aS'49.94.22.67:3128'
p984
aS'183.207.228.7:8119'
p985
aS'113.66.66.204:8088'
p986
aS'117.177.45.102:8123'
p987
aS'49.90.27.78:3128'
p988
aS'188.166.39.174:8080'
p989
aS'183.207.227.21:8080'
p990
aS'183.220.245.36:8123'
p991
aS'49.90.40.105:3128'
p992
aS'117.37.232.68:3128'
p993
aS'183.207.232.194:8080'
p994
aS'183.222.155.24:8123'
p995
aS'27.225.157.226:8118'
p996
aS'190.200.96.182:9064'
p997
aS'111.72.95.133:8123'
p998
aS'49.91.43.39:80'
p999
aS'117.177.243.26:8085'
p1000
aS'117.177.243.54:84'
p1001
aS'202.171.253.74:85'
p1002
aS'183.207.228.7:8666'
p1003
aS'203.109.72.43:9064'
p1004
aS'27.148.91.166:3128'
p1005
aS'183.220.239.169:8123'
p1006
aS'36.60.163.146:80'
p1007
aS'183.222.155.102:8123'
p1008
aS'189.16.13.90:8080'
p1009
aS'183.207.228.7:8101'
p1010
aS'124.202.182.214:8118'
p1011
aS'221.237.155.64:9797'
p1012
aS'219.86.203.202:9064'
p1013
aS'41.94.8.2:8000'
p1014
aS'112.64.28.73:8090'
p1015
aS'69.197.148.18:7808'
p1016
aS'91.220.61.3:8080'
p1017
aS'183.31.252.212:9999'
p1018
aS'222.45.196.19:8118'
p1019
aS'183.223.21.175:8123'
p1020
aS'49.94.10.23:80'
p1021
aS'49.91.42.215:80'
p1022
aS'49.94.151.159:3128'
p1023
aS'36.41.35.180:3128'
p1024
aS'113.140.105.169:80'
p1025
aS'183.216.60.126:8123'
p1026
aS'183.221.186.86:8123'
p1027
aS'125.111.73.249:8118'
p1028
aS'187.111.2.99:8080'
p1029
aS'121.231.77.46:8118'
p1030
aS'190.102.17.180:80'
p1031
aS'117.177.243.41:85'
p1032
aS'120.138.123.96:9064'
p1033
aS'54.191.182.62:80'
p1034
aS'49.94.146.154:80'
p1035
aS'190.220.110.219:8080'
p1036
aS'211.138.121.38:80'
p1037
aS'183.222.159.161:8123'
p1038
aS'117.177.243.101:82'
p1039
aS'49.93.7.65:80'
p1040
aS'183.223.33.142:8123'
p1041
aS'58.115.138.198:9064'
p1042
aS'117.177.243.113:83'
p1043
aS'14.25.106.99:3128'
p1044
aS'219.223.190.90:3128'
p1045
aS'58.255.30.10:9797'
p1046
aS'183.222.152.248:8123'
p1047
aS'121.8.89.58:9797'
p1048
aS'222.171.28.121:3128'
p1049
aS'117.21.80.94:8118'
p1050
aS'222.129.201.178:9000'
p1051
aS'180.251.28.192:8080'
p1052
aS'123.52.130.52:9999'
p1053
aS'112.95.58.99:9999'
p1054
aS'49.93.15.139:80'
p1055
aS'219.64.65.213:9064'
p1056
aS'111.242.185.131:9064'
p1057
aS'182.237.155.51:9064'
p1058
aS'117.177.243.37:8081'
p1059
aS'182.93.218.86:8080'
p1060
aS'27.148.33.81:3128'
p1061
aS'36.41.32.119:3128'
p1062
aS'163.125.146.207:9999'
p1063
aS'41.206.36.166:8080'
p1064
aS'121.8.69.98:9797'
p1065
aS'183.62.197.234:9797'
p1066
aS'58.209.196.105:9797'
p1067
aS'182.206.181.89:3128'
p1068
aS'111.12.128.171:9797'
p1069
aS'1.181.33.55:3128'
p1070
aS'183.207.227.56:8080'
p1071
aS'125.39.66.69:80'
p1072
aS'49.90.33.5:80'
p1073
aS'117.177.243.101:80'
p1074
aS'106.58.148.118:80'
p1075
aS'199.200.120.36:3127'
p1076
aS'14.99.232.58:9064'
p1077
aS'180.250.173.212:8080'
p1078
aS'49.93.207.136:3128'
p1079
aS'49.94.138.153:80'
p1080
aS'183.207.228.7:9259'
p1081
aS'183.223.197.46:8123'
p1082
aS'113.252.50.32:9064'
p1083
aS'49.91.27.50:80'
p1084
aS'117.177.243.43:83'
p1085
aS'118.171.179.5:9064'
p1086
aS'183.141.79.245:3128'
p1087
aS'117.37.250.189:80'
p1088
aS'150.107.137.48:8080'
p1089
aS'82.146.147.112:80'
p1090
aS'187.61.249.119:8080'
p1091
aS'139.226.113.167:8090'
p1092
aS'190.77.245.2:9064'
p1093
aS'183.222.154.225:8123'
p1094
aS'120.195.110.195:80'
p1095
aS'113.226.226.8:8585'
p1096
aS'223.19.106.123:9064'
p1097
aS'183.220.245.226:8123'
p1098
aS'14.26.53.55:3128'
p1099
aS'54.163.247.37:3128'
p1100
aS'183.140.165.42:3128'
p1101
aS'125.88.215.118:80'
p1102
aS'110.176.179.70:80'
p1103
aS'49.90.28.8:80'
p1104
aS'121.15.230.126:9797'
p1105
aS'220.185.103.108:3128'
p1106
aS'119.139.169.1:9999'
p1107
aS'183.207.227.18:80'
p1108
aS'36.61.154.192:3128'
p1109
aS'180.177.61.153:9064'
p1110
aS'202.154.190.150:8080'
p1111
aS'14.153.149.115:9999'
p1112
aS'106.33.188.199:80'
p1113
aS'114.6.52.130:8080'
p1114
aS'42.236.33.180:80'
p1115
aS'182.201.1.225:8090'
p1116
aS'183.207.228.7:8016'
p1117
aS'14.145.4.23:9797'
p1118
aS'49.90.40.51:3128'
p1119
aS'39.68.92.132:8118'
p1120
aS'117.176.245.69:8123'
p1121
aS'49.90.36.63:3128'
p1122
aS'87.106.138.175:80'
p1123
aS'112.45.183.165:8123'
p1124
aS'117.177.243.55:86'
p1125
aS'117.177.243.30:83'
p1126
aS'49.93.226.210:80'
p1127
aS'183.207.228.7:8043'
p1128
aS'49.93.202.6:80'
p1129
aS'78.230.113.155:9064'
p1130
aS'111.95.161.206:9064'
p1131
aS'119.110.72.254:8080'
p1132
aS'200.192.252.130:8080'
p1133
aS'49.90.39.172:80'
p1134
aS'111.90.188.146:8080'
p1135
aS'119.103.14.83:80'
p1136
aS'203.172.215.238:8080'
p1137
aS'183.207.224.52:85'
p1138
aS'202.75.19.22:8080'
p1139
aS'183.207.228.7:9997'
p1140
aS'182.206.127.157:3128'
p1141
aS'114.42.197.230:8080'
p1142
aS'180.245.229.82:8080'
p1143
aS'183.207.228.7:8010'
p1144
aS'83.241.46.175:8080'
p1145
aS'218.240.156.82:80'
p1146
aS'81.20.200.182:8080'
p1147
aS'221.10.102.203:82'
p1148
aS'78.135.0.38:8080'
p1149
aS'61.162.223.41:9797'
p1150
aS'1.170.187.221:9064'
p1151
aS'117.177.163.1:8123'
p1152
aS'119.0.211.216:8118'
p1153
aS'49.91.29.87:80'
p1154
aS'106.125.28.139:80'
p1155
aS'49.93.22.93:80'
p1156
aS'117.27.16.70:8118'
p1157
aS'183.222.158.114:8123'
p1158
aS'120.35.119.181:8118'
p1159
aS'49.94.133.239:3128'
p1160
aS'49.94.133.156:80'
p1161
aS'125.106.107.164:8118'
p1162
aS'27.3.67.182:9064'
p1163
aS'36.250.74.88:80'
p1164
aS'14.199.236.214:9064'
p1165
aS'117.177.243.71:86'
p1166
aS'85.70.179.49:8080'
p1167
aS'183.207.228.7:8034'
p1168
aS'183.207.227.22:8080'
p1169
aS'115.45.109.251:8585'
p1170
aS'171.214.204.34:8090'
p1171
aS'115.227.193.195:3128'
p1172
aS'117.177.243.15:8080'
p1173
aS'117.177.243.72:81'
p1174
aS'111.184.126.166:9064'
p1175
aS'1.161.106.187:9064'
p1176
aS'201.86.251.97:9064'
p1177
aS'183.222.156.151:8123'
p1178
aS'183.207.227.8:80'
p1179
aS'199.200.120.36:8089'
p1180
aS'182.206.36.136:80'
p1181
aS'183.207.228.7:8143'
p1182
aS'61.57.95.53:9064'
p1183
aS'183.223.196.34:8123'
p1184
aS'222.124.7.98:8080'
p1185
aS'187.163.164.233:8080'
p1186
aS'110.176.199.103:80'
p1187
aS'163.125.146.205:9999'
p1188
aS'183.207.228.7:8282'
p1189
aS'117.177.243.71:82'
p1190
aS'110.176.115.45:80'
p1191
aS'49.94.13.158:3128'
p1192
aS'183.222.155.129:8123'
p1193
aS'94.228.207.62:443'
p1194
aS'113.140.116.104:3128'
p1195
aS'14.145.4.159:9797'
p1196
aS'183.16.201.11:9999'
p1197
aS'14.157.155.114:9797'
p1198
aS'137.132.197.157:9064'
p1199
aS'117.194.210.179:9064'
p1200
aS'115.206.9.163:8118'
p1201
aS'117.177.243.39:81'
p1202
aS'183.220.246.23:8123'
p1203
aS'123.189.62.248:8080'
p1204
aS'114.25.220.112:9064'
p1205
aS'115.241.43.246:9064'
p1206
aS'119.103.96.94:80'
p1207
aS'119.103.65.93:80'
p1208
aS'118.102.228.122:9064'
p1209
aS'14.145.4.194:9797'
p1210
aS'120.193.146.95:843'
p1211
aS'114.43.35.62:9064'
p1212
aS'94.139.204.185:8080'
p1213
aS'186.88.185.81:9064'
p1214
aS'49.91.44.70:80'
p1215
aS'49.91.13.53:80'
p1216
aS'218.108.192.205:80'
p1217
aS'113.112.150.116:3128'
p1218
aS'189.22.171.74:8080'
p1219
aS'200.43.65.91:8080'
p1220
aS'49.94.9.149:80'
p1221
aS'60.191.39.252:80'
p1222
aS'49.91.0.211:80'
p1223
aS'113.126.244.159:80'
p1224
aS'36.81.0.236:8080'
p1225
aS'118.144.50.254:3128'
p1226
aS'183.207.228.7:9002'
p1227
aS'222.87.129.218:82'
p1228
aS'183.207.228.7:8036'
p1229
aS'200.101.11.20:8080'
p1230
aS'190.78.230.236:9064'
p1231
aS'121.33.84.29:8090'
p1232
aS'117.177.243.113:81'
p1233
aS'183.207.228.54:85'
p1234
aS'27.254.44.16:9064'
p1235
aS'49.93.227.231:80'
p1236
aS'111.125.249.159:9064'
p1237
aS'123.192.87.151:9064'
p1238
aS'183.207.228.57:80'
p1239
aS'182.234.89.227:9064'
p1240
aS'117.177.243.16:83'
p1241
aS'49.94.134.214:80'
p1242
aS'49.93.201.169:80'
p1243
aS'119.226.60.130:9064'
p1244
aS'183.141.72.145:3128'
p1245
aS'182.239.127.140:81'
p1246
aS'49.94.35.167:3128'
p1247
aS'177.184.135.154:8080'
p1248
aS'202.141.250.173:80'
p1249
aS'131.109.42.105:80'
p1250
aS'113.109.105.76:9797'
p1251
aS'14.145.5.49:9797'
p1252
aS'181.225.61.25:9064'
p1253
aS'183.207.227.50:80'
p1254
aS'128.199.214.105:80'
p1255
aS'183.209.236.116:8123'
p1256
aS'182.201.0.8:8090'
p1257
aS'113.0.188.56:8118'
p1258
aS'36.42.135.32:80'
p1259
aS'222.191.246.244:3128'
p1260
aS'106.34.210.247:80'
p1261
aS'190.122.185.214:8080'
p1262
aS'125.164.46.134:8080'
p1263
aS'182.93.83.101:8080'
p1264
aS'223.150.18.147:9000'
p1265
aS'202.138.229.83:8080'
p1266
aS'116.212.129.198:8080'
p1267
aS'183.207.228.7:8248'
p1268
aS'117.177.243.56:82'
p1269
aS'67.45.172.203:87'
p1270
aS'106.33.76.237:80'
p1271
aS'183.222.159.19:8123'
p1272
aS'189.70.214.176:8080'
p1273
aS'101.82.23.188:8118'
p1274
aS'36.42.137.252:80'
p1275
aS'114.24.183.80:9064'
p1276
aS'115.253.128.121:9064'
p1277
aS'49.93.27.73:3128'
p1278
aS'117.177.243.39:80'
p1279
aS'201.210.4.115:9064'
p1280
aS'49.94.153.71:3128'
p1281
aS'112.3.30.33:8123'
p1282
aS'121.30.36.135:8118'
p1283
aS'183.220.244.132:8123'
p1284
aS'202.119.25.228:9999'
p1285
aS'14.102.27.157:9064'
p1286
aS'201.218.1.90:8080'
p1287
aS'111.161.126.101:80'
p1288
aS'182.93.224.21:8080'
p1289
aS'186.225.35.69:8080'
p1290
aS'221.7.151.90:8080'
p1291
aS'115.228.49.218:3128'
p1292
aS'106.60.86.148:80'
p1293
aS'1.172.144.48:9064'
p1294
aS'49.91.33.134:3128'
p1295
aS'197.210.255.150:8080'
p1296
aS'190.38.57.197:9064'
p1297
aS'183.222.155.74:8123'
p1298
aS'178.254.153.158:8080'
p1299
aS'110.19.159.216:8090'
p1300
aS'219.69.103.121:9064'
p1301
aS'180.149.14.148:9064'
p1302
aS'49.94.161.213:80'
p1303
aS'60.168.214.168:8118'
p1304
aS'134.208.24.15:9064'
p1305
aS'183.207.228.7:8164'
p1306
aS'36.228.127.215:9064'
p1307
aS'49.91.32.7:3128'
p1308
aS'117.177.243.3:80'
p1309
aS'202.138.248.52:8080'
p1310
aS'183.141.71.12:3128'
p1311
aS'188.130.128.243:80'
p1312
aS'183.220.192.35:8123'
p1313
aS'27.2.222.3:9064'
p1314
aS'117.177.243.47:8083'
p1315
aS'218.59.144.95:80'
p1316
aS'183.220.246.88:8123'
p1317
aS'49.94.22.205:80'
p1318
aS'222.45.196.17:8118'
p1319
aS'58.96.176.29:8888'
p1320
aS'183.140.164.210:3128'
p1321
aS'49.94.164.171:3128'
p1322
aS'49.94.140.58:80'
p1323
aS'123.7.54.191:9000'
p1324
aS'110.138.184.57:8080'
p1325
aS'113.0.152.170:8118'
p1326
aS'115.228.54.164:3128'
p1327
aS'183.207.229.17:9000'
p1328
aS'27.219.82.84:8118'
p1329
aS'59.49.48.67:9797'
p1330
aS'118.183.116.126:8585'
p1331
aS'49.91.35.116:3128'
p1332
aS'114.27.104.76:9064'
p1333
aS'183.217.67.35:8123'
p1334
aS'182.92.64.30:8080'
p1335
aS'36.231.19.114:9064'
p1336
aS'118.81.68.46:9797'
p1337
aS'58.134.102.3:16303'
p1338
aS'223.15.111.198:80'
p1339
aS'1.173.211.72:8088'
p1340
aS'49.90.37.97:3128'
p1341
aS'221.178.31.130:8123'
p1342
aS'183.207.228.7:8418'
p1343
aS'219.137.229.146:9797'
p1344
aS'183.207.228.7:8026'
p1345
aS'220.185.103.45:3128'
p1346
aS'115.228.57.135:3128'
p1347
aS'183.184.209.180:9797'
p1348
aS'113.27.210.132:3128'
p1349
aS'117.37.243.188:3128'
p1350
aS'183.207.227.49:8080'
p1351
aS'180.120.33.197:8118'
p1352
aS'183.207.228.7:9096'
p1353
aS'117.158.1.210:9999'
p1354
aS'183.207.228.7:8262'
p1355
aS'163.142.75.178:8080'
p1356
aS'27.149.22.84:3128'
p1357
aS'106.38.188.217:80'
p1358
aS'106.34.205.126:80'
p1359
aS'203.128.89.98:8080'
p1360
aS'49.94.2.9:3128'
p1361
aS'139.0.2.162:8080'
p1362
aS'190.74.202.120:9064'
p1363
aS'197.32.10.40:8080'
p1364
aS'101.69.180.85:443'
p1365
aS'113.123.236.182:8118'
p1366
aS'183.207.237.11:81'
p1367
aS'14.218.221.90:9797'
p1368
aS'49.93.15.139:3128'
p1369
aS'61.227.69.187:9064'
p1370
aS'203.81.67.86:8080'
p1371
aS'218.203.54.30:80'
p1372
aS'117.177.243.114:80'
p1373
aS'190.79.152.215:9064'
p1374
aS'49.94.7.20:80'
p1375
aS'36.77.101.57:8080'
p1376
aS'121.199.42.198:3129'
p1377
aS'222.89.248.100:9999'
p1378
aS'190.203.109.153:9064'
p1379
aS'120.83.5.164:18000'
p1380
aS'116.77.128.68:8118'
p1381
aS'211.98.192.96:8088'
p1382
aS'183.207.228.7:8113'
p1383
aS'183.207.228.115:80'
p1384
aS'222.124.249.210:8080'
p1385
aS'183.140.160.77:3128'
p1386
aS'114.221.206.185:8088'
p1387
aS'106.109.50.219:80'
p1388
aS'54.68.100.142:8000'
p1389
aS'194.60.227.131:8080'
p1390
aS'124.202.182.42:8118'
p1391
aS'110.176.230.210:80'
p1392
aS'49.90.9.227:80'
p1393
aS'27.149.79.187:3128'
p1394
aS'222.85.127.130:9999'
p1395
aS'58.253.238.243:80'
p1396
aS'49.93.15.58:3128'
p1397
aS'183.207.228.52:86'
p1398
aS'183.207.227.53:80'
p1399
aS'183.207.228.7:8099'
p1400
aS'187.84.162.215:8080'
p1401
aS'183.228.197.33:8123'
p1402
aS'14.156.15.130:9999'
p1403
aS'49.94.149.117:3128'
p1404
aS'41.46.196.95:8080'
p1405
aS'122.4.12.143:8118'
p1406
aS'27.100.15.176:9064'
p1407
aS'49.93.37.73:80'
p1408
aS'115.165.247.90:9064'
p1409
aS'61.163.55.3:9000'
p1410
aS'111.252.251.115:9064'
p1411
aS'27.192.119.220:8118'
p1412
aS'163.125.199.70:9999'
p1413
aS'183.207.228.116:80'
p1414
aS'183.207.228.7:8037'
p1415
aS'95.167.39.34:8080'
p1416
aS'202.138.236.238:8080'
p1417
aS'27.3.90.231:9064'
p1418
aS'200.192.254.197:8080'
p1419
aS'110.173.0.58:8080'
p1420
aS'177.67.144.130:8080'
p1421
aS'118.81.69.239:9797'
p1422
aS'117.177.243.16:85'
p1423
aS'117.177.182.91:8123'
p1424
aS'183.83.155.144:9064'
p1425
aS'111.206.65.231:80'
p1426
aS'117.139.40.31:8123'
p1427
aS'49.94.11.225:3128'
p1428
aS'49.91.26.82:3128'
p1429
aS'117.177.243.40:85'
p1430
aS'219.131.172.82:9999'
p1431
aS'117.177.243.69:84'
p1432
aS'186.212.104.173:8080'
p1433
aS'117.172.78.252:8123'
p1434
aS'183.207.228.7:8343'
p1435
aS'183.141.72.210:3128'
p1436
aS'202.119.25.72:9999'
p1437
aS'113.97.26.124:9797'
p1438
aS'189.13.208.187:8080'
p1439
aS'187.60.41.9:8080'
p1440
aS'183.216.60.126:8123'
p1441
aS'117.37.249.56:3128'
p1442
aS'117.177.243.40:84'
p1443
aS'117.23.125.211:8118'
p1444
aS'59.102.130.59:9064'
p1445
aS'183.207.228.7:8114'
p1446
aS'190.79.254.92:9064'
p1447
aS'222.124.129.178:8080'
p1448
aS'189.22.171.89:8080'
p1449
aS'49.93.227.231:3128'
p1450
aS'117.177.243.56:8082'
p1451
aS'183.222.158.115:8123'
p1452
aS'77.50.220.92:8080'
p1453
aS'49.94.5.49:3128'
p1454
aS'177.75.13.206:9064'
p1455
aS'212.80.30.2:8080'
p1456
aS'183.207.228.51:82'
p1457
aS'183.220.70.51:8123'
p1458
aS'190.63.140.138:8080'
p1459
aS'49.94.137.149:80'
p1460
aS'200.216.10.228:8080'
p1461
aS'1.186.227.40:9064'
p1462
aS'118.97.130.10:80'
p1463
aS'54.165.177.0:3128'
p1464
aS'49.93.35.155:3128'
p1465
aS'189.89.159.122:10624'
p1466
aS'183.207.228.7:85'
p1467
aS'31.146.199.160:8080'
p1468
aS'114.46.232.232:9064'
p1469
aS'183.207.228.7:8008'
p1470
aS'182.205.70.142:80'
p1471
aS'186.215.231.214:8080'
p1472
aS'42.97.83.33:80'
p1473
aS'49.94.164.81:3128'
p1474
aS'80.63.55.3:8080'
p1475
aS'181.224.230.3:8080'
p1476
aS'180.251.102.239:8080'
p1477
aS'177.131.53.181:8080'
p1478
aS'49.207.125.49:9064'
p1479
aS'201.211.115.152:8080'
p1480
aS'183.207.228.7:9719'
p1481
aS'117.173.200.44:8123'
p1482
aS'177.23.150.154:8080'
p1483
aS'201.219.167.109:9064'
p1484
aS'49.94.161.17:80'
p1485
aS'221.5.69.51:8000'
p1486
aS'218.78.210.190:8080'
p1487
aS'14.153.127.246:9999'
p1488
aS'183.222.154.170:8123'
p1489
aS'49.94.162.241:80'
p1490
aS'49.90.27.220:3128'
p1491
aS'183.207.228.7:9988'
p1492
aS'183.223.21.175:8123'
p1493
aS'183.207.229.137:8080'
p1494
aS'120.193.146.95:80'
p1495
aS'121.35.80.209:3128'
p1496
aS'182.246.76.165:8118'
p1497
aS'117.177.243.43:84'
p1498
aS'177.55.254.205:8080'
p1499
aS'121.31.112.81:9999'
p1500
aS'203.176.140.226:8080'
p1501
aS'119.103.91.86:80'
p1502
aS'85.202.7.27:8080'
p1503
aS'199.189.84.217:3128'
p1504
aS'36.42.148.52:80'
p1505
aS'49.91.32.79:3128'
p1506
aS'140.115.20.74:9064'
p1507
aS'125.89.39.178:9999'
p1508
aS'154.66.246.42:8080'
p1509
aS'183.207.228.7:88'
p1510
aS'27.28.242.161:9000'
p1511
aS'41.110.64.170:8808'
p1512
aS'113.140.112.54:80'
p1513
aS'190.37.193.153:9064'
p1514
aS'202.138.249.195:8080'
p1515
aS'60.161.46.143:8090'
p1516
aS'114.239.114.110:8118'
p1517
aS'221.10.102.199:843'
p1518
aS'183.207.227.8:8080'
p1519
aS'117.177.243.50:8081'
p1520
aS'94.228.207.62:80'
p1521
aS'183.207.228.7:8003'
p1522
aS'61.19.42.244:80'
p1523
aS'36.46.217.22:8080'
p1524
aS'183.230.53.92:8123'
p1525
aS'163.125.71.100:8888'
p1526
aS'117.177.243.51:86'
p1527
aS'200.192.252.193:8080'
p1528
aS'61.141.186.58:9797'
p1529
aS'183.207.229.19:82'
p1530
aS'115.228.108.164:3128'
p1531
aS'219.137.182.196:9797'
p1532
aS'60.194.67.254:8118'
p1533
aS'120.198.243.115:8090'
p1534
aS'115.248.117.107:8080'
p1535
aS'219.68.189.6:9064'
p1536
aS'27.149.93.53:3128'
p1537
aS'113.89.243.29:9797'
p1538
aS'119.249.30.219:8118'
p1539
aS'80.54.28.35:8080'
p1540
aS'110.155.188.106:8118'
p1541
aS'49.90.7.159:3128'
p1542
aS'49.93.39.203:80'
p1543
aS'41.222.44.42:8080'
p1544
aS'190.36.27.15:9064'
p1545
aS'190.153.100.67:9064'
p1546
aS'183.207.228.54:82'
p1547
aS'49.94.133.209:80'
p1548
aS'139.255.42.222:8080'
p1549
aS'121.31.112.77:9999'
p1550
aS'111.40.194.105:81'
p1551
aS'183.207.228.7:8012'
p1552
aS'197.85.176.182:8080'
p1553
aS'222.191.246.242:3128'
p1554
aS'202.171.253.84:82'
p1555
aS'190.105.76.84:9064'
p1556
aS'117.43.255.178:8118'
p1557
aS'183.186.187.195:8118'
p1558
aS'117.64.26.48:8118'
p1559
aS'183.207.227.39:80'
p1560
aS'103.27.24.114:80'
p1561
aS'203.185.96.2:8080'
p1562
aS'49.91.20.139:80'
p1563
aS'125.24.79.4:80'
p1564
aS'183.207.228.7:8112'
p1565
aS'221.10.102.199:81'
p1566
aS'84.236.134.2:8080'
p1567
aS'36.81.1.17:8080'
p1568
aS'27.147.226.18:9064'
p1569
aS'183.222.155.199:8123'
p1570
aS'200.90.82.201:9064'
p1571
aS'221.182.62.115:9999'
p1572
aS'213.81.212.137:8080'
p1573
aS'222.55.9.21:8123'
p1574
aS'54.64.167.219:80'
p1575
aS'120.198.243.52:80'
p1576
aS'49.91.0.3:3128'
p1577
aS'118.233.133.148:9064'
p1578
aS'27.51.48.242:9064'
p1579
aS'210.245.210.215:80'
p1580
aS'201.217.227.200:9064'
p1581
aS'78.40.41.189:9064'
p1582
aS'1.192.147.172:3128'
p1583
aS'144.76.71.221:9064'
p1584
aS'111.13.136.58:843'
p1585
aS'182.72.91.195:8080'
p1586
aS'49.90.34.27:3128'
p1587
aS'183.207.228.7:8356'
p1588
aS'183.222.154.41:8123'
p1589
aS'113.66.147.221:9000'
p1590
aS'115.225.199.191:8118'
p1591
aS'183.221.217.175:8123'
p1592
aS'183.88.74.53:8080'
p1593
aS'49.94.35.192:3128'
p1594
aS'183.222.159.162:8123'
p1595
aS'222.124.196.42:8080'
p1596
aS'122.141.243.131:80'
p1597
aS'49.93.213.62:80'
p1598
aS'27.12.94.202:8585'
p1599
aS'119.4.43.189:80'
p1600
aS'49.94.153.150:80'
p1601
aS'200.109.230.138:80'
p1602
aS'164.115.246.161:9064'
p1603
aS'14.211.171.183:9999'
p1604
aS'183.223.169.201:8123'
p1605
aS'123.0.204.107:9064'
p1606
aS'49.93.32.15:80'
p1607
aS'117.37.249.112:80'
p1608
aS'49.93.36.171:3128'
p1609
aS'183.207.227.57:8080'
p1610
aS'49.93.19.53:3128'
p1611
aS'117.177.243.46:85'
p1612
aS'112.124.10.8:8080'
p1613
aS'106.34.154.197:80'
p1614
aS'49.91.43.176:80'
p1615
aS'123.167.24.12:80'
p1616
aS'111.185.39.135:9064'
p1617
aS'86.107.110.73:8089'
p1618
aS'121.35.37.179:9999'
p1619
aS'110.176.216.211:3128'
p1620
aS'117.177.243.24:81'
p1621
aS'183.87.118.14:8080'
p1622
aS'183.223.194.246:8123'
p1623
aS'183.220.245.235:8123'
p1624
aS'137.132.208.171:9064'
p1625
aS'61.231.220.47:9064'
p1626
aS'192.187.118.123:443'
p1627
aS'180.254.179.64:8080'
p1628
aS'183.207.228.7:10000'
p1629
aS'49.93.8.50:3128'
p1630
aS'115.228.60.80:3128'
p1631
aS'183.207.228.7:8818'
p1632
aS'218.108.192.205:843'
p1633
aS'183.207.228.7:89'
p1634
aS'183.207.227.10:8080'
p1635
aS'183.11.11.68:9999'
p1636
aS'221.223.83.242:9000'
p1637
aS'117.158.1.210:9797'
p1638
aS'111.13.136.57:843'
p1639
aS'106.58.94.163:80'
p1640
aS'23.236.117.3:80'
p1641
aS'115.236.224.74:8118'
p1642
aS'112.95.205.93:8888'
p1643
aS'49.91.32.7:80'
p1644
aS'203.172.224.206:8080'
p1645
aS'117.13.16.123:8118'
p1646
aS'201.221.131.203:8080'
p1647
aS'117.177.243.15:80'
p1648
aS'190.122.186.227:8080'
p1649
aS'124.130.115.189:8118'
p1650
aS'183.207.228.7:8241'
p1651
aS'190.37.57.212:9064'
p1652
aS'54.178.242.155:80'
p1653
aS'117.177.243.100:83'
p1654
aS'36.231.103.178:9064'
p1655
aS'183.223.188.148:8123'
p1656
aS'183.207.228.54:84'
p1657
aS'85.113.33.197:8080'
p1658
aS'125.123.86.31:3128'
p1659
aS'36.42.147.243:80'
p1660
aS'183.207.229.137:9090'
p1661
aS'117.177.243.75:80'
p1662
aS'203.172.161.254:8080'
p1663
aS'222.191.246.250:3128'
p1664
aS'117.173.120.82:8123'
p1665
aS'113.105.224.86:80'
p1666
aS'66.192.33.78:8080'
p1667
aS'114.83.136.125:9797'
p1668
aS'106.58.92.100:80'
p1669
aS'117.177.243.14:80'
p1670
aS'183.207.229.130:86'
p1671
aS'49.94.32.95:3128'
p1672
aS'113.242.101.32:8118'
p1673
aS'183.207.227.42:8080'
p1674
aS'134.208.38.155:9064'
p1675
aS'36.78.183.153:9064'
p1676
aS'111.12.128.172:81'
p1677
aS'36.97.40.21:80'
p1678
aS'58.135.68.102:80'
p1679
aS'185.54.4.198:80'
p1680
aS'103.16.30.150:9064'
p1681
aS'116.203.202.96:9064'
p1682
aS'117.177.243.26:8081'
p1683
aS'183.207.228.9:80'
p1684
aS'183.222.156.117:8123'
p1685
aS'119.237.138.99:9064'
p1686
aS'124.202.208.18:8118'
p1687
aS'123.190.46.20:9797'
p1688
aS'116.27.48.70:8090'
p1689
aS'117.174.236.170:8123'
p1690
aS'183.223.204.244:8123'
p1691
aS'183.207.228.7:8557'
p1692
aS'111.77.64.106:8118'
p1693
aS'120.193.146.95:82'
p1694
aS'49.90.16.108:80'
p1695
aS'110.176.184.254:80'
p1696
aS'27.149.117.28:3128'
p1697
aS'49.91.2.160:80'
p1698
aS'180.153.100.242:86'
p1699
aS'113.11.117.123:9064'
p1700
aS'117.177.226.22:8123'
p1701
aS'187.111.255.5:8080'
p1702
aS'36.84.180.137:9064'
p1703
aS'123.244.129.49:8118'
p1704
aS'221.235.82.160:8090'
p1705
aS'195.114.128.23:3128'
p1706
aS'118.170.163.140:9064'
p1707
aS'49.94.33.152:3128'
p1708
aS'177.200.84.194:8080'
p1709
aS'49.93.232.117:80'
p1710
aS'190.38.88.1:9064'
p1711
aS'123.241.117.244:9064'
p1712
aS'110.176.222.67:80'
p1713
aS'49.90.32.196:80'
p1714
aS'49.93.16.172:80'
p1715
aS'201.55.143.53:8080'
p1716
aS'42.97.235.80:80'
p1717
aS'190.205.236.134:9064'
p1718
aS'218.108.141.98:8585'
p1719
aS'218.207.12.22:8123'
p1720
aS'183.207.229.137:818'
p1721
aS'199.200.120.37:7808'
p1722
aS'183.220.240.177:8123'
p1723
aS'183.63.116.43:9999'
p1724
aS'49.94.131.150:3128'
p1725
aS'197.211.37.69:8080'
p1726
aS'49.93.35.61:3128'
p1727
aS'113.107.57.76:80'
p1728
aS'183.207.228.7:8286'
p1729
aS'49.93.34.54:3128'
p1730
aS'123.173.230.160:80'
p1731
aS'49.94.8.145:3128'
p1732
aS'27.209.0.179:8118'
p1733
aS'115.227.195.244:3128'
p1734
aS'190.77.108.25:9064'
p1735
aS'180.242.132.173:8080'
p1736
aS'124.123.21.81:9064'
p1737
aS'120.198.243.115:82'
p1738
aS'115.227.195.69:3128'
p1739
aS'110.255.74.15:8118'
p1740
aS'118.180.217.253:8118'
p1741
aS'186.89.222.72:9064'
p1742
aS'118.244.253.1:80'
p1743
aS'183.223.218.70:8123'
p1744
aS'221.201.201.81:8118'
p1745
aS'49.158.205.235:9064'
p1746
aS'189.82.70.91:8080'
p1747
aS'112.44.86.178:8123'
p1748
aS'111.3.77.152:8123'
p1749
aS'117.177.243.37:80'
p1750
aS'113.79.58.191:9999'
p1751
aS'112.16.79.15:8080'
p1752
aS'113.7.35.188:8118'
p1753
aS'49.94.135.13:3128'
p1754
aS'123.118.54.150:8118'
p1755
aS'221.130.199.224:80'
p1756
aS'189.85.17.33:8080'
p1757
aS'125.123.86.8:3128'
p1758
aS'190.205.132.43:9064'
p1759
aS'183.222.156.121:8123'
p1760
aS'36.42.142.167:80'
p1761
aS'27.148.58.221:3128'
p1762
aS'111.253.5.54:9064'
p1763
aS'125.231.216.11:9064'
p1764
aS'42.95.240.27:8118'
p1765
aS'1.161.111.70:9064'
p1766
aS'124.13.177.54:8080'
p1767
aS'5.56.12.4:8080'
p1768
aS'125.39.66.150:80'
p1769
aS'113.69.17.126:9999'
p1770
aS'49.91.43.99:80'
p1771
aS'117.177.243.51:8080'
p1772
aS'77.81.105.147:8089'
p1773
aS'115.228.109.190:3128'
p1774
aS'54.160.59.230:80'
p1775
aS'218.65.132.43:80'
p1776
aS'183.221.164.37:8123'
p1777
aS'117.177.243.42:81'
p1778
aS'223.85.17.143:8123'
p1779
aS'49.90.25.197:3128'
p1780
aS'183.227.217.65:8123'
p1781
aS'123.192.150.117:9064'
p1782
aS'117.177.243.103:80'
p1783
aS'27.149.36.165:3128'
p1784
aS'190.39.138.110:9064'
p1785
aS'1.169.50.248:9064'
p1786
aS'49.91.41.187:3128'
p1787
aS'49.207.0.75:9064'
p1788
aS'177.135.239.162:8080'
p1789
aS'62.212.74.225:8080'
p1790
aS'113.140.116.23:3128'
p1791
aS'113.140.112.54:3128'
p1792
aS'94.181.34.64:8080'
p1793
aS'58.114.91.251:9064'
p1794
aS'117.177.44.78:8123'
p1795
aS'202.75.39.192:8080'
p1796
aS'49.94.35.111:80'
p1797
aS'120.202.249.230:80'
p1798
aS'183.209.237.97:8123'
p1799
aS'200.192.211.14:8080'
p1800
aS'112.24.67.185:8123'
p1801
aS'201.186.205.176:9064'
p1802
aS'188.247.43.30:8080'
p1803
aS'189.17.66.162:8080'
p1804
aS'183.207.227.53:8080'
p1805
aS'183.207.228.7:8041'
p1806
aS'111.68.26.202:9876'
p1807
aS'183.207.228.50:81'
p1808
aS'183.207.228.51:84'
p1809
aS'117.177.243.30:82'
p1810
aS'175.182.129.4:9064'
p1811
aS'139.195.170.201:9064'
p1812
aS'222.81.123.69:8118'
p1813
aS'27.220.146.114:8585'
p1814
aS'221.10.102.203:81'
p1815
aS'95.131.113.56:9064'
p1816
aS'14.150.36.197:9797'
p1817
aS'183.207.224.43:80'
p1818
aS'123.205.236.146:9064'
p1819
aS'202.44.110.201:8080'
p1820
aS'113.25.136.159:8118'
p1821
aS'183.223.167.54:8123'
p1822
aS'117.177.243.37:85'
p1823
aS'219.77.108.12:9064'
p1824
aS'41.35.127.186:8080'
p1825
aS'49.90.3.34:3128'
p1826
aS'183.207.227.22:80'
p1827
aS'183.207.229.138:8086'
p1828
aS'120.193.146.95:81'
p1829
aS'219.69.107.245:9064'
p1830
aS'183.141.74.7:3128'
p1831
aS'201.208.36.122:8080'
p1832
aS'125.94.36.61:9797'
p1833
aS'183.222.157.168:8123'
p1834
aS'183.207.228.42:80'
p1835
aS'49.94.131.54:3128'
p1836
aS'122.141.185.118:8118'
p1837
aS'49.90.19.197:3128'
p1838
aS'183.18.190.191:8118'
p1839
aS'42.97.100.241:80'
p1840
aS'189.110.214.100:9064'
p1841
aS'27.2.222.165:9064'
p1842
aS'123.0.244.215:9064'
p1843
aS'49.91.7.77:3128'
p1844
aS'182.253.177.9:8080'
p1845
aS'117.37.240.67:3128'
p1846
aS'112.45.178.37:8123'
p1847
aS'49.90.13.144:80'
p1848
aS'54.227.120.25:80'
p1849
aS'185.28.193.95:8080'
p1850
aS'110.77.230.5:8080'
p1851
aS'202.102.27.82:80'
p1852
aS'190.121.148.195:8080'
p1853
aS'189.85.20.14:8080'
p1854
aS'183.207.228.7:8218'
p1855
aS'183.207.228.7:8575'
p1856
aS'111.161.126.100:80'
p1857
aS'60.161.182.69:8118'
p1858
aS'183.207.228.51:86'
p1859
aS'36.97.30.112:80'
p1860
aS'106.58.205.212:80'
p1861
aS'117.177.243.83:86'
p1862
aS'111.1.36.163:80'
p1863
aS'115.228.60.95:3128'
p1864
aS'14.218.229.48:9797'
p1865
aS'36.42.151.190:3128'
p1866
aS'219.140.138.42:8090'
p1867
aS'121.234.71.224:9999'
p1868
aS'31.135.196.229:8080'
p1869
aS'111.251.219.101:9064'
p1870
aS'111.94.160.133:9064'
p1871
aS'114.42.155.12:9064'
p1872
aS'49.93.209.19:3128'
p1873
aS'183.222.156.107:8123'
p1874
aS'201.20.108.48:8080'
p1875
aS'125.105.87.206:8118'
p1876
aS'183.203.208.163:8118'
p1877
aS'179.177.190.163:80'
p1878
aS'121.31.112.82:9999'
p1879
aS'201.208.137.192:9064'
p1880
aS'49.91.44.225:3128'
p1881
aS'113.101.103.103:8118'
p1882
aS'117.173.200.6:8123'
p1883
aS'49.94.135.146:80'
p1884
aS'202.38.102.76:80'
p1885
aS'49.91.3.76:80'
p1886
aS'180.245.242.154:8080'
p1887
aS'193.25.120.235:8080'
p1888
aS'218.207.172.236:80'
p1889
aS'112.112.193.96:8118'
p1890
aS'122.176.113.201:8080'
p1891
aS'41.222.196.52:8080'
p1892
aS'183.207.228.7:9798'
p1893
aS'180.252.252.206:8080'
p1894
aS'49.90.1.96:80'
p1895
aS'183.207.228.7:8222'
p1896
aS'49.93.37.87:3128'
p1897
aS'117.177.243.58:8080'
p1898
aS'27.23.198.1:8585'
p1899
aS'36.78.220.75:8080'
p1900
aS'123.163.234.151:80'
p1901
aS'222.191.246.253:3128'
p1902
aS'118.233.160.93:9064'
p1903
aS'49.94.141.226:80'
p1904
aS'49.94.133.239:80'
p1905
aS'49.93.230.113:80'
p1906
aS'14.218.199.97:9999'
p1907
aS'111.12.128.172:8088'
p1908
aS'84.11.252.150:3128'
p1909
aS'203.84.140.119:8080'
p1910
aS'200.174.182.100:8080'
p1911
aS'114.141.49.251:8080'
p1912
aS'61.19.51.50:8080'
p1913
aS'36.42.136.193:80'
p1914
aS'117.177.243.72:86'
p1915
aS'113.140.101.223:80'
p1916
aS'221.10.102.203:843'
p1917
aS'203.172.209.230:8080'
p1918
aS'36.250.74.87:80'
p1919
aS'117.177.243.14:8080'
p1920
aS'106.58.148.30:80'
p1921
aS'110.176.167.144:3128'
p1922
aS'111.1.36.130:80'
p1923
aS'202.171.253.74:83'
p1924
aS'49.94.22.195:80'
p1925
aS'41.216.159.158:8080'
p1926
aS'36.42.142.60:80'
p1927
aS'183.140.162.22:3128'
p1928
aS'123.160.224.90:8118'
p1929
aS'37.16.71.41:8080'
p1930
aS'119.184.122.37:9797'
p1931
aS'37.228.134.52:7808'
p1932
aS'183.223.200.72:8123'
p1933
aS'86.107.110.73:7808'
p1934
aS'49.94.37.195:80'
p1935
aS'54.207.88.2:3333'
p1936
aS'117.174.228.105:8123'
p1937
aS'14.145.7.194:9797'
p1938
aS'183.87.61.25:8080'
p1939
aS'201.55.143.249:8080'
p1940
aS'201.186.210.40:9064'
p1941
aS'222.222.251.185:9797'
p1942
aS'124.161.94.8:80'
p1943
aS'200.192.214.133:8080'
p1944
aS'41.78.26.154:8080'
p1945
aS'177.135.63.48:8080'
p1946
aS'103.18.220.70:8080'
p1947
aS'183.207.228.51:81'
p1948
aS'183.207.228.7:8360'
p1949
aS'120.192.92.99:80'
p1950
aS'54.207.88.90:3333'
p1951
aS'58.62.55.170:9797'
p1952
aS'115.228.62.226:3128'
p1953
aS'112.95.35.43:9797'
p1954
aS'123.110.146.31:9064'
p1955
aS'113.138.144.160:8118'
p1956
aS'125.93.73.118:9999'
p1957
aS'202.147.11.202:80'
p1958
aS'118.141.27.24:9064'
p1959
aS'111.250.170.61:9064'
p1960
aS'117.177.243.14:84'
p1961
aS'106.40.212.205:8123'
p1962
aS'117.177.243.50:81'
p1963
aS'183.222.155.241:8123'
p1964
aS'183.221.146.20:8123'
p1965
aS'77.105.40.96:6666'
p1966
aS'49.94.32.143:3128'
p1967
aS'110.4.12.178:80'
p1968
aS'183.207.228.7:9742'
p1969
aS'49.90.131.151:3128'
p1970
aS'49.94.145.94:3128'
p1971
aS'117.25.249.85:8090'
p1972
aS'118.97.20.60:8080'
p1973
aS'180.253.254.72:8080'
p1974
aS'120.198.243.113:80'
p1975
aS'183.207.224.15:80'
p1976
aS'121.31.112.92:9999'
p1977
aS'124.116.168.17:8118'
p1978
aS'49.90.24.165:80'
p1979
aS'106.58.185.122:80'
p1980
aS'87.76.12.174:8080'
p1981
aS'183.207.228.114:80'
p1982
aS'106.58.165.250:80'
p1983
aS'183.207.228.7:8225'
p1984
aS'123.194.22.182:9064'
p1985
aS'94.74.132.65:8080'
p1986
aS'115.227.195.16:3128'
p1987
aS'183.207.229.130:80'
p1988
aS'183.228.221.11:8123'
p1989
aS'221.10.102.199:80'
p1990
aS'113.76.212.216:9797'
p1991
aS'49.94.140.110:3128'
p1992
aS'118.81.72.193:9797'
p1993
aS'125.123.82.213:3128'
p1994
aS'106.58.167.75:80'
p1995
aS'58.252.240.120:9797'
p1996
aS'183.33.45.16:9797'
p1997
aS'49.93.25.82:80'
p1998
aS'49.93.221.112:3128'
p1999
aS'49.94.3.235:80'
p2000
aS'1.51.235.144:8118'
p2001
aS'183.207.224.12:80'
p2002
aS'113.116.139.197:9797'
p2003
aS'186.78.29.231:8080'
p2004
aS'78.36.205.18:8080'
p2005
aS'115.227.192.179:3128'
p2006
aS'183.207.229.137:8089'
p2007
aS'117.177.243.43:80'
p2008
aS'58.252.199.148:9797'
p2009
aS'182.201.0.168:8090'
p2010
aS'49.93.30.29:80'
p2011
aS'183.33.20.62:9797'
p2012
aS'49.93.37.228:3128'
p2013
aS'117.177.243.30:81'
p2014
aS'54.207.95.63:3333'
p2015
aS'123.110.126.6:9064'
p2016
aS'222.217.19.248:8080'
p2017
aS'27.148.13.112:3128'
p2018
aS'201.211.116.59:9064'
p2019
aS'223.15.89.219:80'
p2020
aS'61.153.21.219:80'
p2021
aS'1.56.132.48:8090'
p2022
aS'49.94.150.229:80'
p2023
aS'106.60.71.235:80'
p2024
aS'49.64.2.21:8118'
p2025
aS'139.195.174.212:9064'
p2026
aS'58.50.218.186:9999'
p2027
aS'112.26.162.18:8123'
p2028
aS'119.141.102.191:9797'
p2029
aS'183.223.33.45:8123'
p2030
aS'182.93.219.254:8080'
p2031
aS'113.248.105.80:8080'
p2032
aS'49.94.130.160:80'
p2033
aS'113.219.127.105:3128'
p2034
aS'119.1.219.110:8118'
p2035
aS'1.241.62.111:3129'
p2036
aS'60.250.107.211:9064'
p2037
aS'60.206.153.177:8118'
p2038
aS'211.149.221.13:80'
p2039
aS'117.177.243.38:81'
p2040
aS'183.207.237.11:80'
p2041
aS'117.177.243.15:86'
p2042
aS'105.112.1.166:8080'
p2043
aS'183.207.229.19:80'
p2044
aS'202.59.163.129:8080'
p2045
aS'49.90.25.88:80'
p2046
aS'117.177.243.102:80'
p2047
aS'122.234.148.200:8118'
p2048
aS'122.239.11.40:8118'
p2049
aS'183.207.227.25:8080'
p2050
aS'222.191.246.251:3128'
p2051
aS'49.93.208.211:3128'
p2052
aS'195.244.36.177:8080'
p2053
aS'165.132.25.80:8080'
p2054
aS'140.112.73.50:9064'
p2055
aS'106.60.74.108:80'
p2056
aS'49.94.140.58:3128'
p2057
aS'49.93.193.201:3128'
p2058
aS'183.207.228.7:8243'
p2059
aS'189.115.173.11:8080'
p2060
aS'118.166.158.101:9064'
p2061
aS'113.129.135.198:80'
p2062
aS'185.37.226.107:19350'
p2063
aS'183.207.228.7:8421'
p2064
aS'180.119.189.83:8118'
p2065
aS'113.21.65.247:9064'
p2066
aS'49.94.153.186:3128'
p2067
aS'219.133.182.111:9797'
p2068
aS'186.90.80.209:9064'
p2069
aS'78.228.112.145:9064'
p2070
aS'41.129.132.152:8080'
p2071
aS'118.244.253.11:80'
p2072
aS'183.207.229.139:8088'
p2073
aS'222.177.26.233:3128'
p2074
aS'49.94.130.159:80'
p2075
aS'219.142.247.36:8118'
p2076
aS'36.84.47.251:9064'
p2077
aS'183.207.228.7:90'
p2078
aS'39.72.33.72:8118'
p2079
aS'119.90.127.5:80'
p2080
aS'117.201.111.123:9064'
p2081
aS'201.211.239.77:9064'
p2082
aS'49.94.145.218:80'
p2083
aS'82.117.162.232:8080'
p2084
aS'49.91.13.31:3128'
p2085
aS'117.14.83.178:8118'
p2086
aS'202.171.253.84:83'
p2087
aS'112.5.254.172:80'
p2088
aS'116.50.213.51:8008'
p2089
aS'117.177.243.70:81'
p2090
aS'115.244.224.43:9064'
p2091
aS'183.222.154.135:8123'
p2092
aS'201.20.182.34:8080'
p2093
aS'27.116.62.75:8080'
p2094
aS'49.94.146.6:80'
p2095
aS'123.136.29.149:9064'
p2096
aS'27.150.183.37:8118'
p2097
aS'106.38.184.222:80'
p2098
aS'59.173.231.60:8585'
p2099
aS'183.220.247.40:8123'
p2100
aS'49.207.234.1:9064'
p2101
aS'113.119.215.83:9797'
p2102
aS'89.237.156.144:8080'
p2103
aS'222.161.162.0:8118'
p2104
aS'113.68.87.216:8090'
p2105
aS'49.90.16.108:3128'
p2106
aS'27.42.194.180:80'
p2107
aS'14.117.1.189:9999'
p2108
aS'183.220.105.193:8123'
p2109
aS'186.88.87.155:9064'
p2110
aS'117.172.76.222:8123'
p2111
aS'1.199.73.162:8118'
p2112
aS'121.34.187.128:9999'
p2113
aS'36.70.226.237:8080'
p2114
aS'120.197.53.197:8080'
p2115
aS'183.207.224.50:80'
p2116
aS'124.167.87.112:8118'
p2117
aS'190.94.241.126:9064'
p2118
aS'117.177.243.68:80'
p2119
aS'49.93.8.242:80'
p2120
aS'124.125.39.217:9064'
p2121
aS'49.91.8.66:3128'
p2122
aS'183.207.227.7:8080'
p2123
aS'183.222.160.40:8123'
p2124
aS'183.207.227.52:8080'
p2125
aS'183.207.228.51:83'
p2126
aS'119.183.254.2:8585'
p2127
aS'120.69.90.84:8118'
p2128
aS'183.207.237.11:86'
p2129
aS'49.159.227.27:9064'
p2130
aS'183.222.158.249:8123'
p2131
aS'49.94.0.9:3128'
p2132
aS'177.42.201.57:8080'
p2133
aS'111.13.136.55:80'
p2134
aS'203.70.194.170:8080'
p2135
aS'120.198.243.15:80'
p2136
aS'123.125.104.240:80'
p2137
aS'49.94.137.211:3128'
p2138
aS'117.37.237.3:3128'
p2139
aS'180.250.181.98:8080'
p2140
aS'49.93.226.248:3128'
p2141
aS'111.40.194.105:80'
p2142
aS'183.207.229.138:8089'
p2143
aS'95.159.23.195:80'
p2144
aS'180.234.76.165:9064'
p2145
aS'223.151.80.189:9000'
p2146
aS'124.202.183.74:8118'
p2147
aS'24.135.187.53:8080'
p2148
aS'117.177.243.37:81'
p2149
aS'182.205.13.101:3128'
p2150
aS'1.162.190.42:9064'
p2151
aS'122.72.22.199:80'
p2152
aS'182.93.233.142:8080'
p2153
aS'36.73.115.132:8080'
p2154
aS'182.239.95.139:80'
p2155
aS'49.90.6.86:80'
p2156
aS'202.166.213.42:8080'
p2157
aS'183.141.73.183:3128'
p2158
aS'49.94.161.135:3128'
p2159
aS'49.93.199.176:3128'
p2160
aS'119.123.240.2:8118'
p2161
aS'113.88.192.67:9000'
p2162
aS'49.90.32.247:80'
p2163
aS'139.193.173.27:9064'
p2164
aS'114.37.151.49:9064'
p2165
aS'203.172.209.190:8080'
p2166
aS'49.91.34.186:80'
p2167
aS'54.207.102.115:3333'
p2168
aS'201.27.170.109:9064'
p2169
aS'183.220.240.117:8123'
p2170
aS'111.13.55.3:22'
p2171
aS'1.168.15.92:9064'
p2172
aS'117.13.18.127:8118'
p2173
aS'36.224.84.173:9064'
p2174
aS'202.102.27.70:80'
p2175
aS'49.91.0.114:80'
p2176
aS'118.97.255.106:8080'
p2177
aS'123.8.88.5:8118'
p2178
aS'171.9.155.16:80'
p2179
aS'112.193.173.195:8118'
p2180
aS'183.82.198.170:9064'
p2181
aS'183.223.192.21:8123'
p2182
aS'223.64.38.8:8123'
p2183
aS'106.34.16.137:80'
p2184
aS'182.93.232.190:8080'
p2185
aS'117.177.243.113:80'
p2186
aS'117.194.11.166:9064'
p2187
aS'118.244.253.10:80'
p2188
aS'23.236.117.2:80'
p2189
aS'113.214.13.1:8000'
p2190
aS'202.150.166.252:9064'
p2191
aS'27.46.20.225:8888'
p2192
aS'113.140.116.23:80'
p2193
aS'117.177.243.41:82'
p2194
aS'110.176.25.172:3128'
p2195
aS'201.211.234.168:9064'
p2196
aS'36.80.216.8:8080'
p2197
aS'219.136.135.18:9797'
p2198
aS'27.149.48.173:3128'
p2199
aS'182.253.34.126:8080'
p2200
aS'117.177.243.42:82'
p2201
aS'42.236.33.177:80'
p2202
aS'113.116.112.185:8118'
p2203
aS'117.37.248.110:3128'
p2204
aS'113.27.227.192:80'
p2205
aS'103.10.150.114:8080'
p2206
aS'36.76.214.199:8080'
p2207
aS'122.137.1.154:80'
p2208
aS'117.177.243.40:86'
p2209
aS'183.207.228.22:81'
p2210
aS'117.177.243.43:82'
p2211
aS'115.228.63.21:3128'
p2212
aS'183.82.196.225:9064'
p2213
aS'85.200.34.81:80'
p2214
aS'183.222.152.160:8123'
p2215
aS'183.69.46.184:8118'
p2216
aS'117.174.232.0:8123'
p2217
aS'122.192.61.16:8118'
p2218
aS'106.58.84.90:80'
p2219
aS'27.3.89.244:9064'
p2220
aS'49.90.8.203:80'
p2221
aS'163.125.202.28:9999'
p2222
aS'183.220.244.12:8123'
p2223
aS'175.184.163.248:8090'
p2224
aS'181.198.116.90:80'
p2225
aS'221.226.20.158:8080'
p2226
aS'49.91.22.141:80'
p2227
aS'49.93.201.222:80'
p2228
aS'117.177.243.105:80'
p2229
aS'14.145.7.5:9797'
p2230
aS'117.177.243.50:8085'
p2231
aS'221.217.96.90:8118'
p2232
aS'117.37.252.207:3128'
p2233
aS'14.153.149.115:9797'
p2234
aS'165.132.27.110:8080'
p2235
aS'110.74.222.246:8080'
p2236
aS'119.187.28.172:8118'
p2237
aS'91.217.42.3:8080'
p2238
aS'117.177.243.56:80'
p2239
aS'183.62.255.58:9797'
p2240
aS'117.177.243.39:8081'
p2241
aS'223.86.217.47:8123'
p2242
aS'49.94.37.15:80'
p2243
aS'189.1.12.163:8080'
p2244
aS'49.93.230.98:3128'
p2245
aS'117.177.243.15:8082'
p2246
aS'14.145.4.153:9797'
p2247
aS'187.108.223.204:8080'
p2248
aS'49.90.6.58:80'
p2249
aS'115.228.48.94:3128'
p2250
aS'213.81.212.138:8080'
p2251
aS'183.223.196.73:8123'
p2252
aS'183.224.229.250:8123'
p2253
aS'183.220.247.171:8123'
p2254
aS'121.33.223.242:9797'
p2255
aS'117.173.106.123:8123'
p2256
aS'223.15.248.198:80'
p2257
aS'60.10.66.88:8080'
p2258
aS'183.207.228.7:8906'
p2259
aS'86.122.124.11:80'
p2260
aS'41.46.202.105:8080'
p2261
aS'183.223.196.46:8123'
p2262
aS'121.8.82.90:9999'
p2263
aS'183.207.227.17:80'
p2264
aS'119.103.36.92:80'
p2265
aS'202.56.160.79:9064'
p2266
aS'120.192.92.98:80'
p2267
aS'183.207.228.7:8355'
p2268
aS'182.93.240.86:8080'
p2269
aS'36.235.53.209:9064'
p2270
aS'190.161.1.98:9064'
p2271
aS'183.82.140.201:9064'
p2272
aS'183.141.74.129:3128'
p2273
aS'49.90.16.200:3128'
p2274
aS'182.205.121.98:80'
p2275
aS'123.30.75.115:443'
p2276
aS'112.95.204.63:8888'
p2277
aS'210.27.164.5:8118'
p2278
aS'49.91.22.141:3128'
p2279
aS'36.61.110.23:3128'
p2280
aS'188.191.33.126:8080'
p2281
aS'183.209.110.14:8123'
p2282
aS'118.232.6.121:9064'
p2283
aS'183.221.220.192:8123'
p2284
aS'49.90.23.250:3128'
p2285
aS'54.64.234.73:80'
p2286
aS'123.54.30.219:8118'
p2287
aS'1.161.120.126:9064'
p2288
aS'189.71.4.206:8080'
p2289
aS'211.144.81.69:18000'
p2290
aS'183.207.228.119:80'
p2291
aS'183.207.229.17:8000'
p2292
aS'180.153.100.242:82'
p2293
aS'111.192.254.174:9000'
p2294
aS'118.170.235.118:9064'
p2295
aS'49.94.1.185:3128'
p2296
aS'80.193.96.250:8080'
p2297
aS'111.251.3.234:9064'
p2298
aS'183.207.228.7:8217'
p2299
aS'201.20.177.33:8080'
p2300
aS'221.130.199.209:80'
p2301
aS'60.194.14.144:82'
p2302
aS'110.171.10.136:9064'
p2303
aS'101.228.198.209:9999'
p2304
aS'123.121.109.14:8118'
p2305
aS'180.153.100.242:81'
p2306
aS'95.211.99.111:8080'
p2307
aS'5.175.110.246:9064'
p2308
aS'106.38.188.219:80'
p2309
aS'111.1.36.167:80'
p2310
aS'182.93.229.78:8080'
p2311
aS'183.223.32.48:8123'
p2312
aS'183.207.227.42:80'
p2313
aS'88.255.31.34:9999'
p2314
aS'27.149.10.110:3128'
p2315
aS'117.177.243.111:80'
p2316
aS'183.220.241.237:8123'
p2317
aS'117.177.243.114:81'
p2318
aS'187.25.183.99:9064'
p2319
aS'195.38.185.187:3128'
p2320
aS'121.54.71.93:9064'
p2321
aS'111.40.194.39:80'
p2322
aS'117.177.243.102:84'
p2323
aS'183.230.114.199:8123'
p2324
aS'171.82.6.187:80'
p2325
aS'112.19.141.43:8123'
p2326
aS'119.103.79.42:3128'
p2327
aS'49.94.28.211:80'
p2328
aS'219.136.135.92:9797'
p2329
aS'36.84.13.148:9064'
p2330
aS'120.197.53.198:9797'
p2331
aS'49.93.34.183:3128'
p2332
aS'117.176.28.174:8123'
p2333
aS'49.93.217.117:80'
p2334
aS'111.91.95.12:9064'
p2335
aS'121.8.170.53:9797'
p2336
aS'139.226.113.25:8090'
p2337
aS'49.91.19.31:80'
p2338
aS'36.60.33.118:3128'
p2339
aS'117.177.243.100:84'
p2340
aS'161.246.193.143:9064'
p2341
aS'125.123.85.197:3128'
p2342
aS'183.33.161.45:9999'
p2343
aS'111.40.194.104:81'
p2344
aS'117.176.9.155:8123'
p2345
aS'109.81.248.107:8080'
p2346
aS'79.140.18.69:80'
p2347
aS'115.28.178.242:8088'
p2348
aS'49.93.208.211:80'
p2349
aS'49.93.21.212:80'
p2350
aS'163.125.156.176:8888'
p2351
aS'54.207.101.75:3333'
p2352
aS'222.124.124.191:8080'
p2353
aS'117.177.243.50:8083'
p2354
aS'201.57.255.231:8080'
p2355
aS'190.199.192.137:9064'
p2356
aS'49.93.26.83:80'
p2357
aS'182.239.127.136:80'
p2358
aS'81.162.62.166:8080'
p2359
aS'186.90.25.215:9064'
p2360
aS'36.42.142.143:80'
p2361
aS'183.207.228.7:8031'
p2362
aS'117.177.147.203:8123'
p2363
aS'103.27.24.113:80'
p2364
aS'125.123.86.74:3128'
p2365
aS'201.248.251.13:9064'
p2366
aS'183.223.39.62:8123'
p2367
aS'183.207.228.7:8254'
p2368
aS'112.22.228.17:8123'
p2369
aS'117.176.2.111:8123'
p2370
aS'46.20.75.193:8080'
p2371
aS'117.207.237.112:9064'
p2372
aS'61.31.160.152:9064'
p2373
aS'42.93.228.115:8118'
p2374
aS'163.125.156.225:8888'
p2375
aS'123.57.66.107:8080'
p2376
aS'61.158.173.188:9999'
p2377
aS'14.145.5.35:9797'
p2378
aS'183.222.156.152:8123'
p2379
aS'182.118.31.46:80'
p2380
aS'61.224.235.228:9064'
p2381
aS'190.122.186.213:8080'
p2382
aS'183.63.81.66:9797'
p2383
aS'119.246.109.19:9064'
p2384
aS'202.179.71.250:8080'
p2385
aS'222.89.248.101:9999'
p2386
aS'202.58.205.126:8080'
p2387
aS'190.122.186.231:8080'
p2388
aS'110.73.6.136:80'
p2389
aS'163.53.187.98:8080'
p2390
aS'117.37.252.32:3128'
p2391
aS'94.100.57.237:8080'
p2392
aS'117.177.243.114:84'
p2393
aS'49.93.226.248:80'
p2394
aS'123.131.123.123:8585'
p2395
aS'49.94.13.15:3128'
p2396
aS'220.165.58.136:8118'
p2397
aS'183.207.227.18:8080'
p2398
aS'117.177.243.36:80'
p2399
aS'49.93.3.243:3128'
p2400
aS'27.148.11.156:3128'
p2401
aS'223.85.81.203:8123'
p2402
aS'117.177.243.56:84'
p2403
aS'113.118.218.233:9999'
p2404
aS'112.197.238.29:9064'
p2405
aS'182.253.152.128:8080'
p2406
aS'186.89.217.234:9064'
p2407
aS'183.207.227.50:8080'
p2408
aS'119.14.122.164:9064'
p2409
aS'69.64.56.4:110'
p2410
aS'14.218.217.4:9797'
p2411
aS'117.37.233.235:3128'
p2412
aS'61.163.165.250:9797'
p2413
aS'113.66.147.3:9000'
p2414
aS'49.93.211.240:80'
p2415
aS'113.27.208.118:3128'
p2416
aS'49.94.7.181:3128'
p2417
aS'119.6.144.74:83'
p2418
aS'121.8.248.202:9797'
p2419
aS'202.162.194.8:80'
p2420
aS'101.4.60.46:80'
p2421
aS'183.57.82.74:8081'
p2422
aS'49.91.4.82:3128'
p2423
aS'54.83.242.138:80'
p2424
aS'101.71.27.120:80'
p2425
aS'200.195.167.156:8080'
p2426
aS'181.39.14.146:8080'
p2427
aS'111.13.4.37:80'
p2428
aS'182.206.175.14:80'
p2429
aS'202.164.150.233:9064'
p2430
aS'27.6.160.25:9064'
p2431
aS'49.93.199.212:80'
p2432
aS'119.186.87.148:9797'
p2433
aS'78.160.163.173:8080'
p2434
aS'14.29.180.192:9797'
p2435
aS'14.145.4.90:9797'
p2436
aS'61.230.135.253:9064'
p2437
aS'49.90.36.227:80'
p2438
aS'49.91.11.60:80'
p2439
aS'183.141.64.164:3128'
p2440
aS'212.69.27.102:6666'
p2441
aS'117.177.243.73:80'
p2442
aS'36.41.45.83:80'
p2443
aS'222.78.97.102:8118'
p2444
aS'62.82.240.2:8080'
p2445
aS'223.15.80.148:80'
p2446
aS'58.57.73.142:9797'
p2447
aS'220.185.103.172:3128'
p2448
aS'123.12.39.243:8118'
p2449
aS'180.250.67.194:8080'
p2450
aS'61.19.42.244:8080'
p2451
aS'49.94.144.81:3128'
p2452
aS'118.161.70.53:9064'
p2453
aS'49.90.26.107:3128'
p2454
aS'120.198.243.79:80'
p2455
aS'41.46.218.240:8080'
p2456
aS'121.13.242.2:9999'
p2457
aS'183.89.149.175:8080'
p2458
aS'187.110.190.116:9064'
p2459
aS'200.50.162.193:8080'
p2460
aS'221.237.154.57:9797'
p2461
aS'49.90.40.224:3128'
p2462
aS'113.140.113.186:3128'
p2463
aS'163.125.146.190:9999'
p2464
aS'183.40.122.209:3128'
p2465
aS'182.52.58.92:8888'
p2466
aS'180.153.100.242:83'
p2467
aS'111.185.85.184:9064'
p2468
aS'183.207.229.130:85'
p2469
aS'36.61.67.143:3128'
p2470
aS'54.207.88.141:3333'
p2471
aS'27.148.18.82:3128'
p2472
aS'49.91.19.248:80'
p2473
aS'49.93.16.52:3128'
p2474
aS'195.177.127.222:8080'
p2475
aS'36.60.163.146:3128'
p2476
aS'183.89.111.34:8080'
p2477
aS'14.102.74.170:9064'
p2478
aS'49.93.31.208:80'
p2479
aS'106.35.126.209:8118'
p2480
aS'222.87.129.218:81'
p2481
aS'190.202.242.242:9064'
p2482
aS'115.44.69.12:8118'
p2483
aS'209.55.124.164:8081'
p2484
aS'200.25.232.246:8080'
p2485
aS'49.94.33.152:80'
p2486
aS'219.246.65.143:3128'
p2487
aS'124.115.211.30:9797'
p2488
aS'113.70.157.82:9999'
p2489
aS'183.207.228.7:9888'
p2490
aS'203.128.16.202:80'
p2491
aS'114.80.182.132:80'
p2492
aS'111.181.178.166:8118'
p2493
aS'49.90.34.136:80'
p2494
aS'183.222.154.132:8123'
p2495
aS'117.37.242.172:80'
p2496
aS'117.41.20.9:9000'
p2497
aS'103.17.39.5:8080'
p2498
aS'183.140.162.139:3128'
p2499
aS'121.204.64.238:8118'
p2500
aS'49.94.3.58:80'
p2501
aS'5.160.85.227:8080'
p2502
aS'58.67.159.50:80'
p2503
aS'221.131.89.186:8123'
p2504
aS'27.3.105.63:9064'
p2505
aS'49.94.3.23:3128'
p2506
aS'183.222.154.33:8123'
p2507
aS'183.209.236.222:8123'
p2508
aS'36.72.143.190:8080'
p2509
aS'49.90.34.27:80'
p2510
aS'49.93.203.188:3128'
p2511
aS'60.191.205.70:443'
p2512
aS'187.5.38.130:8080'
p2513
aS'190.92.87.102:8080'
p2514
aS'94.255.143.59:9064'
p2515
aS'115.228.53.215:3128'
p2516
aS'202.102.27.75:80'
p2517
aS'37.187.152.232:443'
p2518
aS'101.4.60.50:80'
p2519
aS'14.221.95.72:9999'
p2520
aS'117.177.243.35:82'
p2521
aS'119.103.9.246:3128'
p2522
aS'183.23.67.194:9999'
p2523
aS'111.243.132.185:9064'
p2524
aS'110.181.33.138:8118'
p2525
aS'49.91.35.35:3128'
p2526
aS'123.149.78.238:8118'
p2527
aS'117.102.163.3:8080'
p2528
aS'176.109.0.13:8080'
p2529
aS'124.202.183.74:8118'
p2530
aS'163.125.71.27:8888'
p2531
aS'218.203.54.31:80'
p2532
aS'49.91.33.134:80'
p2533
aS'27.46.1.24:9999'
p2534
aS'111.13.136.57:80'
p2535
aS'49.93.13.25:80'
p2536
aS'182.205.73.1:80'
p2537
aS'115.28.238.147:8080'
p2538
aS'117.39.169.143:80'
p2539
aS'49.94.139.91:3128'
p2540
aS'49.93.196.4:80'
p2541
aS'175.180.180.180:9064'
p2542
aS'177.42.131.18:8080'
p2543
aS'14.29.183.5:9999'
p2544
aS'117.177.243.113:82'
p2545
aS'199.200.120.37:3127'
p2546
aS'183.212.12.113:8123'
p2547
aS'125.123.90.85:8088'
p2548
aS'183.207.228.56:80'
p2549
aS'49.90.37.97:80'
p2550
aS'89.26.71.134:8080'
p2551
aS'49.93.6.243:80'
p2552
aS'183.70.13.210:8118'
p2553
aS'223.19.65.219:9064'
p2554
aS'110.176.149.94:3128'
p2555
aS'117.177.243.29:81'
p2556
aS'183.222.153.106:8123'
p2557
aS'49.93.227.237:80'
p2558
aS'111.242.183.203:9064'
p2559
aS'189.115.173.11:8080'
p2560
aS'183.207.224.52:86'
p2561
aS'183.209.236.149:8123'
p2562
aS'183.207.227.39:8080'
p2563
aS'112.19.124.99:8123'
p2564
aS'117.177.243.113:84'
p2565
aS'117.177.243.29:83'
p2566
aS'49.93.21.23:3128'
p2567
aS'192.192.129.49:9064'
p2568
aS'61.64.26.214:9064'
p2569
aS'113.116.109.166:9999'
p2570
aS'115.85.67.140:9064'
p2571
aS'106.58.111.190:80'
p2572
aS'183.207.228.7:8318'
p2573
aS'113.240.192.27:8118'
p2574
aS'49.93.39.100:80'
p2575
aS'113.115.149.79:3128'
p2576
aS'125.123.85.96:3128'
p2577
aS'117.177.243.57:82'
p2578
aS'221.10.102.199:82'
p2579
aS'49.93.221.136:80'
p2580
aS'165.132.25.79:8080'
p2581
aS'183.207.227.42:81'
p2582
aS'122.116.69.164:80'
p2583
aS'49.94.3.12:80'
p2584
aS'1.59.139.46:8118'
p2585
aS'190.14.224.253:8080'
p2586
aS'49.94.149.246:80'
p2587
aS'46.40.38.110:8080'
p2588
aS'163.125.245.206:9999'
p2589
aS'49.94.130.70:80'
p2590
aS'49.91.34.244:3128'
p2591
aS'49.91.21.43:80'
p2592
aS'115.29.163.12:88'
p2593
aS'120.198.243.82:80'
p2594
aS'202.129.15.241:8080'
p2595
aS'122.118.32.10:9064'
p2596
aS'119.103.111.90:80'
p2597
aS'222.172.169.12:8118'
p2598
aS'123.121.111.173:9999'
p2599
aS'117.176.189.126:8123'
p2600
aS'106.33.63.38:80'
p2601
aS'49.91.20.80:80'
p2602
aS'182.254.129.68:80'
p2603
aS'1.181.25.43:3128'
p2604
aS'219.223.189.202:3128'
p2605
aS'1.173.126.239:9064'
p2606
aS'49.93.13.217:80'
p2607
aS'117.177.243.55:85'
p2608
aS'103.17.80.197:9064'
p2609
aS'36.42.149.71:3128'
p2610
aS'49.90.40.73:3128'
p2611
aS'125.39.66.66:80'
p2612
aS'186.90.52.34:9064'
p2613
aS'183.220.240.249:8123'
p2614
aS'49.93.230.118:3128'
p2615
aS'210.57.208.14:80'
p2616
aS'112.231.31.218:8118'
p2617
aS'120.194.212.119:9797'
p2618
aS'221.235.81.6:8090'
p2619
aS'49.90.13.144:3128'
p2620
aS'49.94.131.73:3128'
p2621
aS'123.122.116.122:8118'
p2622
aS'190.202.176.229:9064'
p2623
aS'49.94.20.162:3128'
p2624
aS'183.221.147.209:8123'
p2625
aS'183.41.135.147:3128'
p2626
aS'207.5.112.114:8080'
p2627
aS'183.140.160.202:3128'
p2628
aS'173.164.52.1:3128'
p2629
aS'103.10.150.115:8080'
p2630
aS'183.207.228.7:8104'
p2631
aS'124.202.182.178:8118'
p2632
aS'221.205.91.196:9797'
p2633
aS'117.177.243.36:83'
p2634
aS'36.41.46.6:80'
p2635
aS'119.6.144.74:81'
p2636
aS'180.211.180.17:8888'
p2637
aS'119.103.10.227:3128'
p2638
aS'183.220.241.55:8123'
p2639
aS'27.149.21.85:3128'
p2640
aS'49.90.25.237:80'
p2641
aS'49.93.10.153:3128'
p2642
aS'118.97.115.130:80'
p2643
aS'183.207.228.7:8048'
p2644
aS'14.26.19.158:3128'
p2645
aS'183.62.38.50:9797'
p2646
aS'60.13.74.183:81'
p2647
aS'202.202.121.136:3128'
p2648
aS'183.207.228.7:9874'
p2649
aS'183.22.128.183:8090'
p2650
aS'115.132.61.232:8080'
p2651
aS'223.15.145.222:80'
p2652
aS'94.198.135.79:8080'
p2653
aS'183.207.228.7:8182'
p2654
aS'183.207.228.7:9737'
p2655
aS'183.207.228.8:80'
p2656
aS'183.141.79.246:3128'
p2657
aS'202.29.235.130:3129'
p2658
aS'49.91.30.179:80'
p2659
aS'183.222.153.89:8123'
p2660
aS'117.177.160.225:8123'
p2661
aS'183.207.224.51:80'
p2662
aS'189.91.142.34:8080'
p2663
aS'118.81.72.189:9797'
p2664
aS'111.40.194.103:80'
p2665
aS'80.66.212.185:8080'
p2666
aS'54.207.87.247:3333'
p2667
aS'163.125.156.240:8888'
p2668
aS'201.211.250.145:9064'
p2669
aS'49.93.13.154:80'
p2670
aS'114.27.193.168:9064'
p2671
aS'125.123.85.21:3128'
p2672
aS'117.177.243.68:82'
p2673
aS'112.22.227.41:8123'
p2674
aS'190.199.56.226:9064'
p2675
aS'49.91.29.184:80'
p2676
aS'14.145.4.52:9797'
p2677
aS'117.37.162.128:8123'
p2678
aS'113.141.134.33:3128'
p2679
aS'183.220.239.167:8123'
p2680
aS'54.169.206.7:8080'
p2681
aS'183.222.159.58:8123'
p2682
aS'183.140.162.106:3128'
p2683
aS'49.93.213.160:3128'
p2684
aS'121.121.41.221:80'
p2685
aS'134.90.185.150:8080'
p2686
aS'183.207.229.138:8000'
p2687
aS'112.82.172.18:8118'
p2688
aS'201.29.227.247:8080'
p2689
aS'117.177.182.2:8123'
p2690
aS'197.40.155.125:8080'
p2691
aS'223.86.223.29:8123'
p2692
aS'113.250.59.147:8118'
p2693
aS'183.207.228.7:8054'
p2694
aS'110.176.0.96:3128'
p2695
aS'113.105.224.87:80'
p2696
aS'36.75.247.217:8080'
p2697
aS'112.142.128.229:8080'
p2698
aS'115.227.194.12:3128'
p2699
aS'49.94.32.93:3128'
p2700
aS'49.93.35.74:80'
p2701
aS'182.235.236.205:9064'
p2702
aS'183.207.227.6:80'
p2703
aS'113.113.98.236:3128'
p2704
aS'111.13.136.59:80'
p2705
aS'183.223.181.219:8123'
p2706
aS'183.207.229.19:8000'
p2707
aS'202.179.71.121:8080'
p2708
aS'183.207.229.19:86'
p2709
aS'121.63.183.230:8585'
p2710
aS'183.207.228.7:83'
p2711
aS'163.125.221.124:9999'
p2712
aS'183.207.227.20:8080'
p2713
aS'221.4.134.231:8080'
p2714
aS'61.7.134.16:8080'
p2715
aS'94.42.65.138:8080'
p2716
aS'49.94.152.248:80'
p2717
aS'58.214.5.229:80'
p2718
aS'117.177.243.30:86'
p2719
aS'106.60.17.106:80'
p2720
aS'58.52.195.3:9797'
p2721
aS'202.119.25.71:9999'
p2722
aS'31.15.48.12:80'
p2723
aS'183.222.155.160:8123'
p2724
aS'59.56.173.75:8585'
p2725
aS'49.93.230.193:3128'
p2726
aS'36.61.154.173:80'
p2727
aS'91.187.122.28:8080'
p2728
aS'183.207.227.24:80'
p2729
aS'113.232.39.48:8118'
p2730
aS'14.96.30.57:9064'
p2731
aS'36.41.43.199:3128'
p2732
aS'183.207.224.13:80'
p2733
aS'183.224.99.150:8123'
p2734
aS'200.109.230.141:80'
p2735
aS'115.228.106.78:3128'
p2736
aS'14.145.7.240:9797'
p2737
aS'190.73.225.163:9064'
p2738
aS'175.18.175.173:8585'
p2739
aS'190.205.207.122:9064'
p2740
aS'183.224.12.86:84'
p2741
aS'49.94.20.232:80'
p2742
aS'124.207.182.194:3128'
p2743
aS'112.22.16.87:8123'
p2744
aS'117.177.243.77:80'
p2745
aS'94.156.237.66:80'
p2746
aS'123.240.136.32:9064'
p2747
aS'163.125.244.27:9797'
p2748
aS'218.164.130.73:9064'
p2749
aS'49.90.10.216:3128'
p2750
aS'49.91.25.7:80'
p2751
aS'36.250.74.88:8103'
p2752
aS'119.1.255.14:8118'
p2753
aS'196.214.141.58:8080'
p2754
aS'111.12.128.172:8001'
p2755
aS'117.177.243.53:8081'
p2756
aS'183.207.228.7:8203'
p2757
aS'123.110.146.116:9064'
p2758
aS'113.53.249.29:9999'
p2759
aS'36.42.135.100:3128'
p2760
aS'117.177.243.51:82'
p2761
aS'177.55.253.202:8080'
p2762
aS'49.91.13.96:3128'
p2763
aS'115.228.58.245:3128'
p2764
aS'183.207.228.7:8118'
p2765
aS'111.248.87.151:9064'
p2766
aS'117.139.37.149:8123'
p2767
aS'106.58.227.18:80'
p2768
aS'115.228.60.194:3128'
p2769
aS'182.239.127.134:80'
p2770
aS'14.114.244.114:9797'
p2771
aS'181.88.177.145:8080'
p2772
aS'187.109.98.129:8080'
p2773
aS'200.8.148.228:9064'
p2774
aS'42.62.105.221:8090'
p2775
aS'27.2.91.198:9064'
p2776
aS'182.205.176.242:3128'
p2777
aS'58.42.174.101:8585'
p2778
aS'117.177.243.46:84'
p2779
aS'106.0.168.110:8080'
p2780
aS'49.90.13.127:80'
p2781
aS'117.139.46.185:8123'
p2782
aS'183.222.158.144:8123'
p2783
aS'49.91.34.83:3128'
p2784
aS'115.43.9.181:9064'
p2785
aS'117.177.243.103:81'
p2786
aS'49.94.129.2:3128'
p2787
aS'49.91.35.253:3128'
p2788
aS'219.133.31.120:8888'
p2789
aS'1.206.221.147:8118'
p2790
aS'183.140.164.54:3128'
p2791
aS'123.139.70.43:8585'
p2792
aS'124.202.181.102:8118'
p2793
aS'113.140.122.32:80'
p2794
aS'106.58.239.152:80'
p2795
aS'117.37.255.220:3128'
p2796
aS'182.201.0.33:8090'
p2797
aS'186.95.113.218:9064'
p2798
aS'115.43.17.74:9064'
p2799
aS'211.144.81.66:18001'
p2800
aS'222.87.66.93:8118'
p2801
aS'183.207.228.7:9247'
p2802
aS'113.108.141.98:9797'
p2803
aS'124.205.154.181:3128'
p2804
aS'183.207.228.7:8001'
p2805
aS'183.220.241.132:8123'
p2806
aS'119.103.32.46:80'
p2807
aS'106.58.168.179:80'
p2808
aS'200.90.157.37:8080'
p2809
aS'175.184.162.195:8090'
p2810
aS'183.62.41.66:9797'
p2811
aS'175.18.223.72:8118'
p2812
aS'117.173.21.223:8123'
p2813
aS'119.120.137.88:9797'
p2814
aS'178.249.14.12:80'
p2815
aS'117.177.243.57:80'
p2816
aS'36.233.30.90:9064'
p2817
aS'183.31.253.81:9999'
p2818
aS'113.115.23.5:3128'
p2819
aS'27.188.65.173:9999'
p2820
aS'49.93.228.69:3128'
p2821
aS'110.176.101.96:80'
p2822
aS'171.9.245.125:80'
p2823
aS'115.214.165.78:8118'
p2824
aS'121.14.138.56:81'
p2825
aS'36.42.154.18:3128'
p2826
aS'124.202.182.234:8118'
p2827
aS'198.99.224.134:80'
p2828
aS'222.74.28.14:23'
p2829
aS'168.63.24.174:8128'
p2830
aS'171.109.59.81:8090'
p2831
aS'36.82.94.167:8080'
p2832
aS'183.223.204.94:8123'
p2833
aS'186.212.158.197:8080'
p2834
aS'111.74.56.248:9000'
p2835
aS'118.167.162.148:9064'
p2836
aS'182.52.109.70:8080'
p2837
aS'119.180.107.161:8118'
p2838
aS'117.177.243.53:85'
p2839
aS'183.223.194.105:8123'
p2840
aS'113.130.125.170:8080'
p2841
aS'113.140.97.68:3128'
p2842
aS'220.135.237.167:9064'
p2843
aS'69.197.148.18:8089'
p2844
aS'190.79.202.151:9064'
p2845
aS'41.46.218.63:8080'
p2846
aS'46.175.185.162:9999'
p2847
aS'27.50.16.170:8080'
p2848
aS'49.94.130.186:3128'
p2849
aS'111.13.65.204:80'
p2850
aS'183.140.161.229:3128'
p2851
aS'120.14.229.10:8118'
p2852
aS'117.177.243.40:83'
p2853
aS'182.139.67.100:8585'
p2854
aS'49.94.17.108:3128'
p2855
aS'49.118.180.247:8118'
p2856
aS'106.58.123.214:80'
p2857
aS'49.94.13.93:80'
p2858
aS'49.91.2.227:80'
p2859
aS'202.28.82.88:8080'
p2860
aS'80.232.165.90:8080'
p2861
aS'113.27.218.11:3128'
p2862
aS'36.60.55.252:3128'
p2863
aS'183.223.193.46:8123'
p2864
aS'180.248.51.70:8080'
p2865
aS'67.215.230.82:80'
p2866
aS'114.69.229.69:8080'
p2867
aS'114.235.97.45:8118'
p2868
aS'117.177.46.138:8123'
p2869
aS'212.68.51.58:80'
p2870
aS'111.254.36.205:9064'
p2871
aS'198.50.129.34:8080'
p2872
aS'202.119.25.70:9999'
p2873
aS'175.25.243.22:80'
p2874
aS'183.222.159.131:8123'
p2875
aS'36.97.4.136:80'
p2876
aS'112.18.195.72:8123'
p2877
aS'49.91.4.205:80'
p2878
aS'54.227.199.109:80'
p2879
aS'115.228.108.110:3128'
p2880
aS'14.145.4.150:9797'
p2881
aS'117.177.243.73:86'
p2882
aS'78.11.30.4:2020'
p2883
aS'42.97.246.151:80'
p2884
aS'124.202.169.166:8118'
p2885
aS'183.207.227.19:8080'
p2886
aS'49.93.34.183:80'
p2887
aS'183.207.228.7:8199'
p2888
aS'49.93.226.23:80'
p2889
aS'183.207.224.45:80'
p2890
aS'175.180.81.198:9064'
p2891
aS'183.207.228.7:8468'
p2892
aS'49.94.164.9:3128'
p2893
aS'222.191.246.246:3128'
p2894
aS'49.90.5.161:3128'
p2895
aS'183.141.67.189:3128'
p2896
aS'187.60.40.113:8080'
p2897
aS'119.48.25.51:9999'
p2898
aS'219.93.183.106:8080'
p2899
aS'182.239.127.139:82'
p2900
aS'177.135.110.196:8080'
p2901
aS'178.62.153.68:8118'
p2902
aS'124.91.231.29:8118'
p2903
aS'123.204.186.209:80'
p2904
aS'183.207.228.7:8397'
p2905
aS'117.177.243.35:86'
p2906
aS'61.157.126.37:18000'
p2907
aS'190.121.148.201:8080'
p2908
aS'183.207.228.7:9463'
p2909
aS'190.37.106.216:9064'
p2910
aS'49.91.8.150:3128'
p2911
aS'183.207.229.138:9090'
p2912
aS'183.207.228.52:83'
p2913
aS'120.194.194.154:9797'
p2914
aS'219.131.172.82:9797'
p2915
aS'124.202.183.246:8118'
p2916
aS'200.43.219.118:8080'
p2917
aS'113.140.121.254:3128'
p2918
aS'113.76.157.136:9999'
p2919
aS'49.91.0.114:3128'
p2920
aS'49.207.189.92:9064'
p2921
aS'49.93.2.237:3128'
p2922
aS'112.3.202.103:8123'
p2923
aS'122.136.46.151:80'
p2924
aS'177.55.255.32:8080'
p2925
aS'223.99.254.99:80'
p2926
aS'196.45.132.1:8080'
p2927
aS'202.104.188.53:80'
p2928
aS'123.231.225.159:8080'
p2929
aS'49.93.192.181:3128'
p2930
aS'182.239.127.137:80'
p2931
aS'221.176.14.72:80'
p2932
aS'182.93.225.6:8080'
p2933
aS'61.93.146.147:9064'
p2934
aS'117.177.243.37:8083'
p2935
aS'49.94.21.196:3128'
p2936
aS'91.239.65.151:8089'
p2937
aS'62.109.17.73:8080'
p2938
aS'49.94.20.232:3128'
p2939
aS'183.230.53.60:8123'
p2940
aS'176.194.189.56:8080'
p2941
aS'113.119.215.43:9797'
p2942
aS'116.7.25.188:9797'
p2943
aS'218.18.28.107:9999'
p2944
aS'113.105.224.95:80'
p2945
aS'177.99.79.211:8080'
p2946
aS'115.228.109.248:3128'
p2947
aS'183.62.62.188:9797'
p2948
aS'119.103.8.143:80'
p2949
aS'119.167.78.66:9797'
p2950
aS'181.31.160.63:9064'
p2951
aS'120.68.244.7:8118'
p2952
aS'36.72.147.124:8080'
p2953
aS'58.23.247.217:8118'
p2954
aS'120.210.75.11:8123'
p2955
aS'201.20.177.27:8080'
p2956
aS'103.17.173.141:8080'
p2957
aS'121.35.155.88:9999'
p2958
aS'177.159.146.70:8080'
p2959
aS'117.177.243.30:8081'
p2960
aS'49.93.211.217:3128'
p2961
aS'166.70.91.65:8080'
p2962
aS'183.207.229.137:80'
p2963
aS'190.190.159.8:9064'
p2964
aS'183.207.228.7:9496'
p2965
aS'183.207.224.52:83'
p2966
aS'185.72.156.19:8089'
p2967
aS'1.192.66.132:8118'
p2968
aS'60.207.63.123:8001'
p2969
aS'49.94.150.144:80'
p2970
aS'183.222.152.168:8123'
p2971
aS'49.94.32.196:3128'
p2972
aS'190.121.148.150:8080'
p2973
aS'117.173.245.215:8123'
p2974
aS'41.78.27.237:8080'
p2975
aS'123.119.58.108:8118'
p2976
aS'202.38.102.75:80'
p2977
aS'117.177.243.56:8080'
p2978
aS'82.207.59.4:8080'
p2979
aS'49.94.13.158:80'
p2980
aS'223.15.8.12:80'
p2981
aS'183.222.157.106:8123'
p2982
aS'119.103.33.190:80'
p2983
aS'49.93.214.157:3128'
p2984
aS'117.175.103.92:8123'
p2985
aS'117.177.243.102:81'
p2986
aS'118.97.95.182:8080'
p2987
aS'106.58.206.76:80'
p2988
aS'111.13.136.59:843'
p2989
aS'117.177.243.42:8080'
p2990
aS'54.173.33.93:3128'
p2991
aS'183.207.228.7:8161'
p2992
aS'49.91.35.214:3128'
p2993
aS'202.138.226.146:1111'
p2994
aS'183.63.134.140:9797'
p2995
aS'106.60.88.134:80'
p2996
aS'201.210.156.184:9064'
p2997
aS'49.91.34.50:3128'
p2998
aS'36.85.252.31:8080'
p2999
aS'202.119.25.73:9999'
p3000
aS'49.93.218.177:80'
p3001
aS'217.117.6.22:80'
p3002
aS'113.140.110.192:80'
p3003
aS'42.121.105.155:8888'
p3004
aS'41.188.49.159:8080'
p3005
aS'119.190.248.154:8585'
p3006
aS'14.117.3.5:9999'
p3007
aS'163.125.156.213:8888'
p3008
aS'182.201.1.216:8090'
p3009
aS'182.239.127.139:80'
p3010
aS'183.207.224.51:84'
p3011
aS'117.177.243.108:80'
p3012
aS'5.175.119.61:9064'
p3013
aS'125.40.26.112:9797'
p3014
aS'49.93.195.208:3128'
p3015
aS'117.37.233.185:80'
p3016
aS'183.222.154.80:8123'
p3017
aS'183.222.156.142:8123'
p3018
aS'125.123.81.234:3128'
p3019
aS'182.206.52.164:80'
p3020
aS'111.12.128.171:8060'
p3021
aS'117.177.243.67:84'
p3022
aS'183.207.228.7:8242'
p3023
aS'49.93.197.175:80'
p3024
aS'54.187.174.193:80'
p3025
aS'119.132.81.247:9999'
p3026
aS'183.207.229.138:6969'
p3027
aS'123.120.112.106:9000'
p3028
aS'49.94.13.22:80'
p3029
aS'180.120.4.251:8118'
p3030
aS'183.207.228.7:9341'
p3031
aS'222.74.212.163:3128'
p3032
aS'113.140.97.204:3128'
p3033
aS'49.91.32.183:3128'
p3034
aS'49.93.230.60:3128'
p3035
aS'117.177.243.68:85'
p3036
aS'61.19.30.198:8080'
p3037
aS'49.90.2.243:80'
p3038
aS'120.192.249.74:80'
p3039
aS'183.207.229.138:818'
p3040
aS'36.42.155.64:80'
p3041
aS'106.38.188.218:80'
p3042
aS'113.220.60.55:80'
p3043
aS'49.94.21.196:80'
p3044
aS'49.93.30.1:80'
p3045
aS'183.207.224.51:86'
p3046
aS'201.132.118.114:8080'
p3047
aS'114.40.178.201:9064'
p3048
aS'114.83.102.84:9797'
p3049
aS'183.207.229.130:84'
p3050
aS'36.41.41.102:80'
p3051
aS'62.209.225.107:8080'
p3052
aS'183.222.153.122:8123'
p3053
aS'195.62.78.253:3129'
p3054
aS'223.166.160.58:8118'
p3055
aS'183.207.228.7:8162'
p3056
aS'190.112.42.144:8080'
p3057
aS'183.222.159.225:8123'
p3058
aS'124.130.6.235:8118'
p3059
aS'200.68.24.109:8080'
p3060
aS'183.207.229.19:9000'
p3061
aS'117.177.243.112:80'
p3062
aS'182.37.87.25:8118'
p3063
aS'177.184.201.2:8080'
p3064
aS'113.105.18.229:1180'
p3065
aS'183.82.172.213:9064'
p3066
aS'124.88.67.13:82'
p3067
aS'117.139.33.11:8123'
p3068
aS'115.201.37.158:8118'
p3069
aS'223.223.140.224:9064'
p3070
aS'183.140.165.103:3128'
p3071
aS'111.12.128.172:8080'
p3072
aS'117.177.243.42:83'
p3073
aS'183.207.228.22:84'
p3074
aS'113.19.99.51:9064'
p3075
aS'49.90.36.96:80'
p3076
aS'218.250.126.205:8080'
p3077
aS'119.125.88.155:9797'
p3078
aS'177.55.255.231:8080'
p3079
aS'180.250.47.204:8080'
p3080
aS'183.207.229.130:82'
p3081
aS'218.76.18.38:8090'
p3082
aS'183.222.152.9:8123'
p3083
aS'218.92.29.29:8080'
p3084
aS'113.120.218.244:9797'
p3085
aS'119.97.51.99:8118'
p3086
aS'183.222.157.81:8123'
p3087
aS'190.122.185.207:8080'
p3088
aS'190.202.216.17:9064'
p3089
aS'111.227.39.202:8118'
p3090
aS'36.224.82.141:9064'
p3091
aS'60.249.183.54:9064'
p3092
aS'58.115.19.152:9064'
p3093
aS'124.202.169.98:8118'
p3094
aS'111.13.65.124:80'
p3095
aS'183.207.228.43:80'
p3096
aS'183.207.228.7:9693'
p3097
aS'49.90.18.192:80'
p3098
aS'114.39.35.63:9064'
p3099
aS'115.228.111.231:3128'
p3100
aS'110.176.136.110:80'
p3101
aS'118.141.254.169:9064'
p3102
aS'117.177.243.35:84'
p3103
aS'186.221.184.247:8080'
p3104
aS'210.52.217.97:80'
p3105
aS'36.41.32.119:80'
p3106
aS'222.124.219.198:8080'
p3107
aS'183.222.152.41:8123'
p3108
aS'109.230.164.2:8080'
p3109
aS'183.207.228.7:8292'
p3110
aS'186.216.194.121:8080'
p3111
aS'49.93.10.153:80'
p3112
aS'49.93.2.16:80'
p3113
aS'171.82.95.14:80'
p3114
aS'183.221.220.192:8123'
p3115
aS'177.184.137.234:8080'
p3116
aS'117.57.39.93:8118'
p3117
aS'49.93.12.184:80'
p3118
aS'183.220.244.29:8123'
p3119
aS'203.172.223.110:8080'
p3120
aS'49.90.40.224:80'
p3121
aS'183.207.228.7:9919'
p3122
aS'54.92.26.86:3128'
p3123
aS'201.51.207.35:8080'
p3124
aS'223.15.27.36:80'
p3125
aS'49.93.196.82:80'
p3126
aS'117.177.243.36:85'
p3127
aS'183.228.221.11:8123'
p3128
aS'117.139.42.149:8123'
p3129
aS'121.101.214.160:80'
p3130
aS'206.82.181.88:3130'
p3131
aS'190.38.195.251:9064'
p3132
aS'14.145.4.84:9797'
p3133
aS'190.206.38.54:9064'
p3134
aS'202.46.85.107:8080'
p3135
aS'218.85.105.31:8090'
p3136
aS'27.147.214.232:9064'
p3137
aS'49.93.211.203:3128'
p3138
aS'58.50.93.147:8118'
p3139
aS'49.90.0.153:80'
p3140
aS'183.223.198.103:8123'
p3141
aS'124.202.181.170:8118'
p3142
aS'183.207.228.9:89'
p3143
aS'113.140.119.251:3128'
p3144
aS'117.39.168.43:80'
p3145
aS'183.207.228.7:8004'
p3146
aS'223.151.39.164:9000'
p3147
aS'128.199.214.105:8080'
p3148
aS'1.168.241.150:9064'
p3149
aS'103.31.132.2:8080'
p3150
aS'223.255.10.39:9797'
p3151
aS'103.251.248.126:8080'
p3152
aS'218.68.82.176:8585'
p3153
aS'159.224.67.123:9064'
p3154
aS'118.81.177.65:9797'
p3155
aS'183.141.76.239:3128'
p3156
aS'117.177.243.103:82'
p3157
aS'183.207.227.25:80'
p3158
aS'113.140.116.141:3128'
p3159
aS'211.110.212.78:8080'
p3160
aS'14.198.181.45:9064'
p3161
aS'117.37.250.230:80'
p3162
aS'117.135.244.45:80'
p3163
aS'117.177.243.42:80'
p3164
aS'222.124.28.188:8080'
p3165
aS'115.46.215.218:9999'
p3166
aS'123.125.8.253:1209'
p3167
aS'49.93.222.232:80'
p3168
aS'201.209.228.59:9064'
p3169
aS'180.234.211.173:8080'
p3170
aS'49.94.1.164:3128'
p3171
aS'120.197.53.198:8080'
p3172
aS'117.172.78.115:8123'
p3173
aS'41.78.26.225:8080'
p3174
aS'124.202.183.218:8118'
p3175
aS'49.91.20.6:80'
p3176
aS'49.93.39.88:80'
p3177
aS'117.177.243.40:80'
p3178
aS'182.205.190.132:80'
p3179
aS'49.91.28.33:80'
p3180
aS'175.1.135.95:80'
p3181
aS'183.207.228.7:8214'
p3182
aS'14.145.4.53:9797'
p3183
aS'49.91.21.94:3128'
p3184
aS'49.91.40.164:80'
p3185
aS'110.74.196.19:8080'
p3186
aS'36.42.129.228:80'
p3187
aS'182.239.127.139:81'
p3188
aS'190.38.49.236:9064'
p3189
aS'183.223.195.96:8123'
p3190
aS'24.172.34.114:8181'
p3191
aS'113.114.69.17:3128'
p3192
aS'223.15.6.109:80'
p3193
aS'187.109.101.19:8090'
p3194
aS'49.91.37.208:80'
p3195
aS'183.207.227.6:8080'
p3196
aS'122.224.90.20:80'
p3197
aS'110.73.6.136:9999'
p3198
aS'183.221.217.212:8123'
p3199
aS'49.91.20.109:3128'
p3200
aS'110.176.229.132:80'
p3201
aS'121.31.112.79:9999'
p3202
aS'54.238.52.112:8087'
p3203
aS'183.207.228.7:8121'
p3204
aS'120.193.146.95:83'
p3205
aS'115.228.104.184:3128'
p3206
aS'27.149.78.204:3128'
p3207
aS'49.93.7.65:3128'
p3208
aS'49.90.6.185:3128'
p3209
aS'180.153.100.242:84'
p3210
aS'183.207.224.50:83'
p3211
aS'1.169.104.137:8088'
p3212
aS'49.90.31.73:80'
p3213
aS'186.93.5.10:8080'
p3214
aS'180.248.31.177:8080'
p3215
aS'117.177.243.112:84'
p3216
aS'58.115.156.89:9064'
p3217
aS'203.176.182.98:8080'
p3218
aS'36.238.171.34:9064'
p3219
aS'183.207.228.7:8339'
p3220
aS'200.93.77.141:9064'
p3221
aS'183.223.192.105:8123'
p3222
aS'1.164.214.48:9064'
p3223
aS'54.172.108.200:8888'
p3224
aS'114.252.97.114:8118'
p3225
aS'183.141.79.228:3128'
p3226
aS'183.207.237.11:84'
p3227
aS'120.198.243.115:8080'
p3228
aS'139.0.131.171:9064'
p3229
aS'195.191.78.129:8080'
p3230
aS'27.225.232.185:8118'
p3231
aS'183.207.228.7:8309'
p3232
aS'177.43.220.158:8080'
p3233
aS'163.125.71.99:8888'
p3234
aS'183.44.178.168:8118'
p3235
aS'46.143.247.100:8080'
p3236
aS'183.207.228.7:8088'
p3237
aS'183.207.228.7:9118'
p3238
aS'202.169.53.14:8010'
p3239
aS'113.107.57.76:3128'
p3240
aS'171.218.225.112:80'
p3241
aS'183.42.253.70:3128'
p3242
aS'117.173.120.96:8123'
p3243
aS'183.140.164.207:3128'
p3244
aS'183.207.228.7:9426'
p3245
aS'49.94.35.229:80'
p3246
aS'94.187.179.0:8080'
p3247
aS'180.210.190.77:9064'
p3248
aS'49.91.35.35:80'
p3249
aS'27.121.85.238:8080'
p3250
aS'190.29.24.23:8080'
p3251
aS'124.202.169.102:8118'
p3252
aS'200.45.51.87:8080'
p3253
aS'36.237.201.169:9064'
p3254
aS'111.206.50.177:80'
p3255
aS'111.240.107.88:9064'
p3256
aS'212.175.244.43:8080'
p3257
aS'106.60.7.101:80'
p3258
aS'183.220.245.11:8123'
p3259
aS'183.207.228.7:8618'
p3260
aS'176.107.17.101:8080'
p3261
aS'103.18.220.69:80'
p3262
aS'113.126.235.54:80'
p3263
aS'117.176.30.22:8123'
p3264
aS'124.192.148.14:8080'
p3265
aS'192.161.51.186:8080'
p3266
aS'110.49.210.113:8080'
p3267
aS'113.207.128.129:80'
p3268
aS'190.123.179.82:9064'
p3269
aS'110.167.35.174:8118'
p3270
aS'59.105.179.151:8888'
p3271
aS'183.207.228.7:8158'
p3272
aS'220.143.7.231:9064'
p3273
aS'49.90.3.124:3128'
p3274
aS'49.91.14.186:3128'
p3275
aS'49.94.16.43:80'
p3276
aS'183.222.158.41:8123'
p3277
aS'113.76.213.205:9797'
p3278
aS'183.207.228.7:8208'
p3279
aS'183.207.224.50:81'
p3280
aS'113.253.171.246:9064'
p3281
aS'183.203.208.164:8118'
p3282
aS'105.112.0.63:8080'
p3283
aS'117.173.18.163:8123'
p3284
aS'49.90.32.83:80'
p3285
aS'183.207.228.7:86'
p3286
aS'46.40.87.106:8080'
p3287
aS'222.45.196.19:8001'
p3288
aS'223.99.254.99:83'
p3289
aS'118.233.215.40:9064'
p3290
aS'117.177.243.39:83'
p3291
aS'14.218.88.85:9797'
p3292
aS'94.100.50.54:8080'
p3293
aS'115.228.106.240:3128'
p3294
aS'183.83.151.136:9064'
p3295
aS'103.17.37.1:8080'
p3296
aS'183.207.228.7:8094'
p3297
aS'183.207.228.7:8080'
p3298
aS'54.165.242.115:80'
p3299
aS'49.91.24.201:80'
p3300
aS'49.94.37.58:80'
p3301
aS'117.177.243.29:86'
p3302
aS'182.206.166.3:80'
p3303
aS'118.167.164.39:9064'
p3304
aS'112.19.178.95:8123'
p3305
aS'150.107.136.142:8080'
p3306
aS'115.228.109.85:3128'
p3307
aS'116.7.170.207:9999'
p3308
aS'117.177.243.48:85'
p3309
aS'122.225.106.40:80'
p3310
aS'118.252.144.56:8118'
p3311
aS'176.31.26.27:8118'
p3312
aS'118.97.149.43:8080'
p3313
aS'190.38.52.50:9064'
p3314
aS'111.10.137.156:8123'
p3315
aS'14.97.185.229:9064'
p3316
aS'120.236.148.113:3128'
p3317
aS'124.130.46.105:8118'
p3318
aS'111.251.232.106:9064'
p3319
aS'114.104.11.189:8118'
p3320
aS'45.64.136.154:8080'
p3321
aS'81.163.88.18:8080'
p3322
aS'117.177.243.71:81'
p3323
aS'117.177.243.107:80'
p3324
aS'115.228.105.0:3128'
p3325
aS'118.75.162.21:8118'
p3326
aS'117.37.234.172:80'
p3327
aS'177.55.254.155:8080'
p3328
aS'49.94.22.183:3128'
p3329
aS'183.220.244.217:8123'
p3330
aS'49.93.214.65:80'
p3331
aS'183.220.241.19:8123'
p3332
aS'183.223.36.145:8123'
p3333
aS'103.3.78.218:8080'
p3334
aS'103.27.67.2:8080'
p3335
aS'183.207.228.9:90'
p3336
aS'183.207.228.7:8002'
p3337
aS'182.85.109.10:8118'
p3338
aS'190.198.126.20:8080'
p3339
aS'61.135.177.130:80'
p3340
aS'111.13.136.58:80'
p3341
aS'117.177.243.83:81'
p3342
aS'120.86.52.47:9797'
p3343
aS'183.207.229.137:9999'
p3344
aS'183.207.228.9:88'
p3345
aS'117.177.243.106:82'
p3346
aS'125.88.193.205:80'
p3347
aS'203.192.10.66:80'
p3348
aS'203.77.224.242:8080'
p3349
aS'49.93.37.228:80'
p3350
aS'14.145.7.39:9797'
p3351
aS'183.223.218.114:8123'
p3352
aS'112.44.86.4:8123'
p3353
aS'115.187.47.52:9064'
p3354
aS'14.27.176.90:3128'
p3355
aS'37.236.144.15:8080'
p3356
aS'58.19.162.255:8118'
p3357
aS'202.119.25.227:9999'
p3358
aS'49.206.192.47:9064'
p3359
aS'183.207.228.7:8707'
p3360
aS'91.217.197.159:8080'
p3361
aS'123.205.72.150:9064'
p3362
aS'117.177.243.40:81'
p3363
aS'183.207.228.117:80'
p3364
aS'14.218.186.156:9797'
p3365
aS'117.173.203.216:8123'
p3366
aS'183.207.227.51:80'
p3367
aS'117.177.243.57:86'
p3368
aS'113.105.224.66:80'
p3369
aS'116.228.55.217:8003'
p3370
aS'112.18.52.91:8123'
p3371
aS'190.74.220.240:9064'
p3372
aS'183.207.227.53:81'
p3373
aS'222.95.185.51:8118'
p3374
aS'49.94.15.101:80'
p3375
aS'113.87.242.249:9999'
p3376
aS'183.207.237.18:80'
p3377
aS'183.220.245.236:8123'
p3378
aS'183.222.154.161:8123'
p3379
aS'115.87.213.240:8080'
p3380
aS'49.90.9.5:80'
p3381
aS'14.23.158.82:9797'
p3382
aS'182.72.91.196:8080'
p3383
aS'188.168.58.219:3129'
p3384
aS'117.177.243.72:82'
p3385
aS'60.206.246.66:8118'
p3386
aS'60.208.23.28:9999'
p3387
aS'117.177.243.26:81'
p3388
aS'49.91.12.101:3128'
p3389
aS'14.96.14.106:9064'
p3390
aS'117.37.233.36:3128'
p3391
aS'5.160.85.226:8080'
p3392
aS'183.220.105.111:8123'
p3393
aS'141.105.162.156:8080'
p3394
aS'89.39.12.71:1057'
p3395
aS'183.207.228.7:8061'
p3396
aS'117.177.243.101:85'
p3397
aS'116.18.91.241:9999'
p3398
aS'113.68.155.35:9000'
p3399
aS'115.127.32.182:9064'
p3400
aS'195.62.78.1:3129'
p3401
aS'201.20.182.122:8080'
p3402
aS'49.94.9.106:3128'
p3403
aS'203.110.169.108:8080'
p3404
aS'123.163.118.18:9999'
p3405
aS'60.163.197.129:8118'
p3406
aS'117.177.243.101:83'
p3407
aS'125.123.83.235:3128'
p3408
aS'183.222.156.251:8123'
p3409
aS'36.47.209.191:8118'
p3410
aS'49.91.31.132:3128'
p3411
aS'117.177.243.102:82'
p3412
aS'183.220.244.129:8123'
p3413
aS'58.50.218.187:9999'
p3414
aS'190.199.206.46:9064'
p3415
aS'124.119.230.57:8118'
p3416
aS'112.215.69.226:9064'
p3417
aS'202.102.27.72:80'
p3418
aS'183.207.228.7:9552'
p3419
aS'49.90.32.247:3128'
p3420
aS'202.78.232.146:9064'
p3421
aS'180.111.114.158:8118'
p3422
aS'101.255.74.58:8080'
p3423
aS'182.235.51.66:9064'
p3424
aS'62.143.168.36:8080'
p3425
aS'14.154.200.62:9797'
p3426
aS'218.24.179.148:443'
p3427
aS'178.217.25.138:8080'
p3428
aS'111.182.47.130:8118'
p3429
aS'116.236.216.116:8080'
p3430
aS'183.203.208.179:8118'
p3431
aS'117.37.243.73:80'
p3432
aS'183.207.229.138:8088'
p3433
aS'221.228.130.51:8118'
p3434
aS'195.175.75.114:8080'
p3435
aS'49.94.19.155:80'
p3436
aS'49.91.33.222:3128'
p3437
aS'182.206.63.216:3128'
p3438
aS'212.69.27.73:6666'
p3439
aS'117.177.243.50:85'
p3440
aS'117.37.243.188:80'
p3441
aS'49.91.26.82:80'
p3442
aS'113.140.116.141:80'
p3443
aS'115.228.61.33:3128'
p3444
aS'113.247.28.112:8118'
p3445
aS'221.182.110.76:8123'
p3446
aS'101.69.180.85:80'
p3447
aS'183.220.246.66:8123'
p3448
aS'114.103.137.223:8118'
p3449
aS'183.140.165.88:3128'
p3450
aS'117.177.243.41:86'
p3451
aS'183.223.199.33:8123'
p3452
aS'117.37.249.112:3128'
p3453
aS'115.200.238.135:8585'
p3454
aS'112.105.110.122:9064'
p3455
aS'49.93.27.73:80'
p3456
aS'117.177.243.69:80'
p3457
aS'183.222.157.239:8123'
p3458
aS'113.66.4.42:8118'
p3459
aS'157.122.114.153:9000'
p3460
aS'49.93.221.112:80'
p3461
aS'163.125.156.170:8888'
p3462
aS'183.141.76.52:3128'
p3463
aS'183.207.228.7:8175'
p3464
aS'101.227.252.130:8081'
p3465
aS'196.45.51.27:8080'
p3466
aS'190.136.18.33:8090'
p3467
aS'183.224.99.148:8123'
p3468
aS'183.230.53.177:8123'
p3469
aS'114.242.166.216:8080'
p3470
aS'117.139.46.197:8123'
p3471
aS'183.207.227.46:80'
p3472
aS'41.42.110.93:8080'
p3473
aS'218.62.136.231:8118'
p3474
aS'115.197.50.35:8118'
p3475
aS'183.207.228.7:8015'
p3476
aS'113.141.141.216:80'
p3477
aS'27.149.31.30:3128'
p3478
aS'183.203.208.166:8118'
p3479
aS'103.247.41.39:8080'
p3480
aS'125.164.247.189:8080'
p3481
aS'1.171.131.53:9064'
p3482
aS'183.222.159.234:8123'
p3483
aS'112.22.16.107:8123'
p3484
aS'49.93.40.184:80'
p3485
aS'36.41.48.39:80'
p3486
aS'182.205.191.113:80'
p3487
aS'117.177.147.107:8123'
p3488
aS'117.177.243.24:80'
p3489
aS'222.72.63.238:9797'
p3490
aS'49.94.11.29:3128'
p3491
aS'117.177.243.53:8083'
p3492
aS'187.111.3.166:8080'
p3493
aS'194.9.236.81:9064'
p3494
aS'222.222.251.129:9797'
p3495
aS'117.177.243.2:8080'
p3496
aS'119.101.93.249:8118'
p3497
aS'112.18.186.18:8123'
p3498
aS'186.95.140.237:8080'
p3499
aS'117.177.243.72:85'
p3500
aS'14.29.80.212:8080'
p3501
aS'36.61.37.11:3128'
p3502
aS'49.90.33.84:80'
p3503
aS'183.223.204.34:8123'
p3504
aS'61.135.177.129:80'
p3505
aS'79.140.16.146:8080'
p3506
aS'123.195.184.47:9064'
p3507
aS'201.209.64.187:9064'
p3508
aS'183.223.192.162:8123'
p3509
aS'117.177.243.67:85'
p3510
aS'183.222.154.117:8123'
p3511
aS'201.243.115.157:9064'
p3512
aS'49.93.15.61:80'
p3513
aS'103.4.167.187:80'
p3514
aS'82.117.166.251:8080'
p3515
aS'117.177.243.2:80'
p3516
aS'117.177.243.103:83'
p3517
aS'183.141.74.240:3128'
p3518
aS'183.222.157.101:8123'
p3519
aS'49.94.152.247:3128'
p3520
aS'125.24.79.116:80'
p3521
aS'125.39.66.67:80'
p3522
aS'119.103.15.14:80'
p3523
aS'49.94.4.35:3128'
p3524
aS'111.13.65.126:80'
p3525
aS'113.113.115.54:3128'
p3526
aS'82.209.199.214:8080'
p3527
aS'200.41.195.253:8080'
p3528
aS'180.211.191.198:8080'
p3529
aS'61.56.161.135:9064'
p3530
aS'117.176.244.21:8123'
p3531
aS'189.85.28.154:8080'
p3532
aS'111.206.61.27:80'
p3533
aS'49.94.15.161:80'
p3534
aS'119.99.215.196:8118'
p3535
aS'61.223.54.217:9064'
p3536
aS'49.94.159.231:3128'
p3537
aS'183.136.51.114:8118'
p3538
aS'115.228.51.121:3128'
p3539
aS'183.207.228.7:8632'
p3540
aS'61.230.80.113:9064'
p3541
aS'94.228.205.41:8080'
p3542
aS'117.139.45.199:8123'
p3543
aS'119.103.10.226:3128'
p3544
aS'114.41.216.135:9064'
p3545
aS'112.53.67.243:9999'
p3546
aS'120.198.243.115:86'
p3547
aS'203.172.172.22:8080'
p3548
aS'61.53.143.179:80'
p3549
aS'124.89.145.131:8585'
p3550
aS'183.207.228.7:8558'
p3551
aS'183.207.237.18:85'
p3552
aS'124.95.163.102:80'
p3553
aS'178.90.223.54:8080'
p3554
aS'49.206.184.253:9064'
p3555
aS'14.24.218.208:3128'
p3556
aS'166.111.80.219:8118'
p3557
aS'49.94.141.114:80'
p3558
aS'113.207.129.129:80'
p3559
aS'14.218.185.62:9797'
p3560
aS'112.101.80.171:9797'
p3561
aS'117.177.243.30:8083'
p3562
aS'36.47.200.97:8118'
p3563
aS'119.103.8.122:3128'
p3564
aS'61.160.250.237:80'
p3565
aS'222.134.147.74:8080'
p3566
aS'117.177.243.35:81'
p3567
aS'187.13.238.117:8080'
p3568
aS'36.250.74.87:8103'
p3569
aS'117.177.147.51:8123'
p3570
aS'49.93.160.94:80'
p3571
aS'190.128.238.38:8080'
p3572
aS'175.3.202.127:9999'
p3573
aS'162.208.49.45:7808'
p3574
aS'118.171.62.205:9064'
p3575
aS'113.78.35.140:9797'
p3576
aS'49.91.23.173:80'
p3577
aS'112.102.57.68:8118'
p3578
aS'180.234.41.39:9064'
p3579
aS'218.164.191.146:9064'
p3580
aS'36.232.100.17:9064'
p3581
aS'49.94.18.109:3128'
p3582
aS'103.25.108.177:8080'
p3583
aS'112.18.187.13:8123'
p3584
aS'49.90.8.203:3128'
p3585
aS'117.37.246.207:3128'
p3586
aS'110.78.145.127:8080'
p3587
aS'112.196.10.45:9064'
p3588
aS'177.159.216.226:8080'
p3589
aS'49.94.36.110:80'
p3590
aS'119.90.127.3:80'
p3591
aS'42.230.40.6:8118'
p3592
aS'123.121.70.14:8118'
p3593
aS'59.50.25.82:8118'
p3594
aS'113.207.130.182:80'
p3595
aS'110.176.19.113:3128'
p3596
aS'120.198.243.151:80'
p3597
aS'201.46.54.42:8080'
p3598
aS'49.93.7.34:80'
p3599
aS'113.56.167.133:8118'
p3600
aS'115.29.247.115:8888'
p3601
aS'120.202.53.50:8080'
p3602
aS'183.207.227.14:80'
p3603
aS'183.5.85.219:9999'
p3604
aS'49.90.11.29:80'
p3605
aS'115.238.225.26:80'
p3606
aS'183.207.228.7:8247'
p3607
aS'202.171.253.74:81'
p3608
aS'112.1.172.30:8123'
p3609
aS'182.205.35.177:3128'
p3610
aS'82.117.163.74:8080'
p3611
aS'49.94.147.108:3128'
p3612
aS'123.166.84.123:8585'
p3613
aS'117.177.243.111:84'
p3614
aS'183.141.64.222:3128'
p3615
aS'36.104.254.159:80'
p3616
aS'117.177.243.54:8082'
p3617
aS'49.93.40.184:3128'
p3618
aS'61.184.192.42:80'
p3619
aS'49.94.22.183:80'
p3620
aS'88.41.145.90:8080'
p3621
aS'182.206.127.157:80'
p3622
aS'49.94.157.122:3128'
p3623
aS'27.207.19.253:8118'
p3624
aS'179.63.254.2:8080'
p3625
aS'54.254.203.16:80'
p3626
aS'186.88.243.79:9064'
p3627
aS'120.9.176.118:9999'
p3628
aS'183.207.229.138:8090'
p3629
aS'85.185.42.5:8080'
p3630
aS'180.211.172.33:8000'
p3631
aS'106.58.146.237:80'
p3632
aS'117.146.116.74:80'
p3633
aS'190.38.55.89:8080'
p3634
aS'49.93.39.100:3128'
p3635
aS'186.247.104.49:8080'
p3636
aS'27.2.140.228:9064'
p3637
aS'163.125.70.253:8888'
p3638
aS'183.207.224.50:82'
p3639
aS'58.57.84.238:9797'
p3640
aS'117.177.243.104:84'
p3641
aS'49.90.0.30:3128'
p3642
aS'148.245.69.206:8080'
p3643
aS'183.207.228.7:8044'
p3644
aS'49.93.210.184:3128'
p3645
aS'116.202.124.195:9064'
p3646
aS'36.232.94.178:9064'
p3647
aS'111.12.128.172:8008'
p3648
aS'1.181.2.185:80'
p3649
aS'112.86.153.18:8118'
p3650
aS'59.60.65.176:8118'
p3651
aS'14.218.217.122:9797'
p3652
aS'49.93.6.179:3128'
p3653
aS'111.68.26.202:80'
p3654
aS'111.12.128.171:8080'
p3655
aS'49.93.39.193:3128'
p3656
aS'123.236.33.204:9064'
p3657
aS'117.239.2.231:9064'
p3658
aS'111.13.65.125:80'
p3659
aS'119.147.91.21:80'
p3660
aS'83.169.240.2:8080'
p3661
aS'49.91.23.253:80'
p3662
aS'112.193.217.83:8118'
p3663
aS'49.93.30.28:80'
p3664
aS'183.207.229.19:8081'
p3665
aS'186.137.93.45:9064'
p3666
aS'182.239.127.140:82'
p3667
aS'113.252.212.9:9064'
p3668
aS'119.103.92.16:80'
p3669
aS'203.172.216.174:8080'
p3670
aS'183.203.208.165:8118'
p3671
aS'27.149.119.163:3128'
p3672
aS'120.198.243.3:80'
p3673
aS'220.161.249.219:8118'
p3674
aS'183.223.199.243:8123'
p3675
aS'49.93.13.88:80'
p3676
aS'113.169.133.0:9064'
p3677
aS'49.94.37.48:80'
p3678
aS'183.207.224.14:80'
p3679
aS'123.240.76.222:9064'
p3680
aS'183.133.143.7:8118'
p3681
aS'183.233.129.80:9000'
p3682
aS'1.181.162.25:8118'
p3683
aS'117.177.46.208:8123'
p3684
aS'60.215.106.248:8118'
p3685
aS'60.191.205.70:80'
p3686
aS'117.176.46.126:8123'
p3687
aS'190.121.148.163:8080'
p3688
aS'49.94.10.23:3128'
p3689
aS'117.242.50.29:8080'
p3690
aS'111.252.228.168:9064'
p3691
aS'49.93.198.204:3128'
p3692
aS'14.211.171.15:9999'
p3693
aS'218.62.135.247:8118'
p3694
aS'106.58.70.119:80'
p3695
aS'222.191.246.249:3128'
p3696
aS'117.177.243.51:85'
p3697
aS'183.140.166.137:3128'
p3698
aS'120.197.234.166:80'
p3699
aS'59.62.26.103:9000'
p3700
aS'183.207.228.7:8388'
p3701
aS'60.209.20.34:9797'
p3702
aS'183.207.224.52:82'
p3703
aS'110.176.199.103:3128'
p3704
aS'117.147.219.46:8123'
p3705
aS'117.177.243.100:80'
p3706
aS'54.207.115.1:3333'
p3707
aS'14.26.14.70:3128'
p3708
aS'200.109.179.107:9064'
p3709
aS'183.141.77.29:3128'
p3710
aS'49.94.25.33:3128'
p3711
aS'220.189.96.123:3128'
p3712
aS'14.145.7.98:9797'
p3713
aS'49.94.11.193:80'
p3714
aS'123.200.3.120:9064'
p3715
aS'123.205.163.29:9064'
p3716
aS'117.177.243.111:83'
p3717
aS'123.161.4.79:9797'
p3718
aS'49.94.158.66:80'
p3719
aS'117.177.147.203:8123'
p3720
aS'36.61.233.138:80'
p3721
aS'219.140.137.167:8090'
p3722
aS'117.177.243.105:85'
p3723
aS'103.251.249.161:8080'
p3724
aS'183.222.160.40:8123'
p3725
aS'183.207.228.7:9438'
p3726
aS'222.45.196.45:8118'
p3727
aS'1.84.164.75:8080'
p3728
aS'202.141.225.126:8080'
p3729
aS'49.90.32.83:3128'
p3730
aS'183.207.228.7:9999'
p3731
aS'117.15.203.21:8118'
p3732
aS'161.246.4.164:9064'
p3733
aS'49.94.33.211:80'
p3734
aS'201.183.232.71:8080'
p3735
aS'202.150.139.142:8080'
p3736
aS'49.94.24.188:3128'
p3737
aS'49.93.222.190:80'
p3738
aS'117.177.243.113:86'
p3739
aS'190.77.181.152:9064'
p3740
aS'41.46.65.191:8080'
p3741
aS'183.207.227.57:80'
p3742
aS'189.21.214.78:8080'
p3743
aS'183.11.253.90:9999'
p3744
aS'119.42.115.207:8080'
p3745
aS'183.222.155.136:8123'
p3746
aS'123.117.20.5:8090'
p3747
aS'115.227.194.166:3128'
p3748
aS'183.207.228.7:8110'
p3749
aS'117.177.243.103:84'
p3750
aS'27.149.125.8:3128'
p3751
aS'203.172.248.190:8080'
p3752
aS'111.12.128.171:8018'
p3753
aS'54.207.44.49:3333'
p3754
aS'223.86.43.251:8123'
p3755
aS'36.42.140.221:3128'
p3756
aS'49.91.16.132:3128'
p3757
aS'112.95.39.238:9797'
p3758
aS'193.178.251.22:8888'
p3759
aS'49.94.164.171:80'
p3760
aS'183.207.237.11:85'
p3761
aS'27.149.58.135:3128'
p3762
aS'210.66.94.122:9064'
p3763
aS'119.103.18.160:3128'
p3764
aS'36.42.138.202:80'
p3765
aS'106.34.241.48:80'
p3766
aS'202.179.184.68:8080'
p3767
aS'190.78.124.85:9064'
p3768
aS'117.177.243.47:85'
p3769
aS'123.179.130.187:8118'
p3770
aS'201.212.180.121:9064'
p3771
aS'106.58.159.198:80'
p3772
aS'117.177.243.67:81'
p3773
aS'1.179.147.2:8080'
p3774
aS'49.93.20.224:3128'
p3775
aS'106.38.188.220:80'
p3776
aS'61.223.225.225:9064'
p3777
aS'190.200.164.203:9064'
p3778
aS'183.207.228.7:8122'
p3779
aS'80.250.201.246:8080'
p3780
aS'201.248.105.190:9064'
p3781
aS'200.84.72.147:9064'
p3782
aS'117.194.83.213:9064'
p3783
aS'106.34.39.173:80'
p3784
aS'49.94.29.243:3128'
p3785
aS'61.228.17.147:9064'
p3786
aS'112.232.101.7:8118'
p3787
aS'110.138.9.166:8080'
p3788
aS'117.177.243.48:8085'
p3789
aS'218.90.174.167:3128'
p3790
aS'49.93.230.60:80'
p3791
aS'193.39.72.210:80'
p3792
aS'49.90.10.107:80'
p3793
aS'113.76.48.80:9797'
p3794
aS'183.207.228.7:9124'
p3795
aS'49.94.164.189:80'
p3796
aS'114.41.205.249:9064'
p3797
aS'118.250.7.136:9999'
p3798
aS'182.23.33.27:8080'
p3799
aS'183.207.229.138:9999'
p3800
aS'190.107.222.186:9064'
p3801
aS'221.182.110.71:8123'
p3802
aS'183.207.228.7:9966'
p3803
aS'183.207.228.9:84'
p3804
aS'201.221.131.102:8080'
p3805
aS'49.93.198.134:3128'
p3806
aS'190.204.131.213:9064'
p3807
aS'177.0.127.233:8080'
p3808
aS'164.115.225.148:9064'
p3809
aS'183.207.228.50:85'
p3810
aS'49.236.212.110:8080'
p3811
aS'118.96.153.181:8080'
p3812
aS'117.177.243.106:85'
p3813
aS'41.46.214.235:8080'
p3814
aS'49.93.233.106:3128'
p3815
aS'201.249.201.105:8089'
p3816
aS'36.42.135.32:3128'
p3817
aS'180.223.44.26:8118'
p3818
aS'120.197.53.199:9797'
p3819
aS'183.33.56.193:9797'
p3820
aS'183.31.251.89:9999'
p3821
aS'106.41.242.182:80'
p3822
aS'59.55.78.25:8118'
p3823
aS'183.207.228.7:8089'
p3824
aS'220.130.164.46:9064'
p3825
aS'121.60.233.41:8118'
p3826
aS'171.9.159.204:80'
p3827
aS'117.139.38.144:8123'
p3828
aS'117.177.243.38:82'
p3829
aS'49.93.225.165:80'
p3830
aS'49.94.156.126:80'
p3831
aS'115.228.63.226:3128'
p3832
aS'111.40.196.68:80'
p3833
aS'31.131.67.76:8080'
p3834
aS'49.94.142.179:3128'
p3835
aS'183.207.228.122:80'
p3836
aS'97.77.25.20:8080'
p3837
aS'190.52.192.1:8080'
p3838
aS'49.90.37.16:3128'
p3839
aS'49.90.36.174:80'
p3840
aS'49.93.15.185:80'
p3841
aS'106.58.224.204:80'
p3842
aS'122.72.0.6:80'
p3843
aS'175.111.34.36:9064'
p3844
aS'200.178.254.178:80'
p3845
aS'222.88.242.213:9999'
p3846
aS'202.171.253.74:86'
p3847
aS'49.90.3.36:80'
p3848
aS'163.125.146.217:9999'
p3849
aS'211.152.50.70:80'
p3850
aS'182.93.233.38:8080'
p3851
aS'14.221.92.168:9999'
p3852
aS'59.55.182.40:9000'
p3853
aS'106.58.199.119:80'
p3854
aS'120.198.243.130:80'
p3855
aS'111.1.3.36:8000'
p3856
aS'49.94.152.247:80'
p3857
aS'117.146.116.74:81'
p3858
aS'222.88.242.213:9797'
p3859
aS'27.44.166.2:9999'
p3860
aS'117.177.243.37:83'
p3861
aS'111.12.128.171:86'
p3862
aS'49.90.10.62:80'
p3863
aS'199.217.117.89:3128'
p3864
aS'124.160.93.36:8118'
p3865
aS'115.248.188.230:8080'
p3866
aS'202.179.75.190:8080'
p3867
aS'49.94.28.130:3128'
p3868
aS'115.228.59.178:3128'
p3869
aS'195.114.128.28:3128'
p3870
aS'49.93.228.241:3128'
p3871
aS'103.28.226.158:8080'
p3872
aS'183.207.228.7:8706'
p3873
aS'121.34.147.74:9797'
p3874
aS'183.146.189.197:9999'
p3875
aS'14.24.81.89:3128'
p3876
aS'112.111.116.73:9000'
p3877
aS'119.42.155.219:9064'
p3878
aS'190.52.192.161:8080'
p3879
aS'117.177.243.16:8083'
p3880
aS'49.93.198.101:3128'
p3881
aS'177.39.173.52:8080'
p3882
aS'121.31.112.88:9797'
p3883
aS'49.90.39.112:80'
p3884
aS'221.0.100.86:8118'
p3885
aS'183.207.224.42:80'
p3886
aS'117.177.243.24:8081'
p3887
aS'49.90.25.237:3128'
p3888
aS'49.204.182.242:9064'
p3889
aS'117.254.184.120:9064'
p3890
aS'54.225.192.171:3128'
p3891
aS'174.32.141.138:87'
p3892
aS'171.218.174.192:3128'
p3893
aS'183.89.128.46:8080'
p3894
aS'195.29.77.9:8080'
p3895
aS'186.88.164.155:9064'
p3896
aS'27.197.229.65:8118'
p3897
aS'190.185.164.121:9064'
p3898
aS'183.207.228.7:9039'
p3899
aS'106.58.213.235:80'
p3900
aS'180.183.46.86:8080'
p3901
aS'219.70.198.151:9064'
p3902
aS'202.162.198.219:8080'
p3903
aS'124.47.57.2:9000'
p3904
aS'120.198.243.115:8000'
p3905
aS'183.207.237.11:83'
p3906
aS'222.129.204.229:9000'
p3907
aS'36.84.117.80:9064'
p3908
aS'36.239.105.229:9064'
p3909
aS'112.249.159.39:9999'
p3910
aS'183.83.66.142:9064'
p3911
aS'154.65.4.90:8080'
p3912
aS'194.106.166.49:8080'
p3913
aS'218.59.144.95:81'
p3914
aS'182.74.167.123:9064'
p3915
aS'183.207.228.51:80'
p3916
aS'54.68.204.71:3128'
p3917
aS'49.94.128.212:3128'
p3918
aS'110.176.237.186:3128'
p3919
aS'161.246.12.210:9064'
p3920
aS'182.134.202.170:8118'
p3921
aS'112.225.164.92:8118'
p3922
aS'117.177.243.68:86'
p3923
aS'111.185.183.54:9064'
p3924
aS'49.94.146.84:3128'
p3925
aS'49.94.20.148:3128'
p3926
aS'180.153.100.242:80'
p3927
aS'36.42.129.228:3128'
p3928
aS'54.207.50.203:3128'
p3929
aS'23.25.88.181:8080'
p3930
aS'183.207.228.7:8018'
p3931
aS'201.243.138.139:9064'
p3932
aS'114.36.47.58:9064'
p3933
aS'117.177.243.69:81'
p3934
aS'171.218.229.199:3128'
p3935
aS'190.182.131.157:9064'
p3936
aS'111.56.13.149:80'
p3937
aS'122.102.41.146:8080'
p3938
aS'42.236.33.176:80'
p3939
aS'120.210.74.5:8123'
p3940
aS'49.93.197.161:3128'
p3941
aS'114.42.159.98:8088'
p3942
aS'112.26.162.52:8123'
p3943
aS'117.173.245.215:8123'
p3944
aS'49.90.25.10:80'
p3945
aS'112.116.100.31:8118'
p3946
aS'112.53.67.243:9797'
p3947
aS'183.223.204.140:8123'
p3948
aS'222.191.246.252:3128'
p3949
aS'201.159.18.182:8080'
p3950
aS'202.191.122.250:8080'
p3951
aS'118.160.157.14:9064'
p3952
aS'202.4.119.238:8080'
p3953
aS'124.202.181.178:8118'
p3954
aS'27.112.68.42:8080'
p3955
aS'183.33.17.109:9797'
p3956
aS'113.140.104.226:3128'
p3957
aS'116.50.25.181:8585'
p3958
aS'183.222.157.120:8123'
p3959
aS'36.41.35.92:3128'
p3960
aS'117.177.243.104:8080'
p3961
aS'104.219.52.54:9064'
p3962
aS'183.220.106.162:8123'
p3963
aS'117.177.243.50:84'
p3964
aS'117.177.243.58:80'
p3965
aS'124.202.169.2:8118'
p3966
aS'109.224.45.205:8080'
p3967
aS'182.74.86.140:8080'
p3968
aS'183.207.229.138:9001'
p3969
aS'117.177.243.38:85'
p3970
aS'49.94.139.31:80'
p3971
aS'117.222.97.97:9064'
p3972
aS'183.223.197.157:8123'
p3973
aS'122.96.59.106:82'
p3974
aS'119.40.94.195:9064'
p3975
aS'61.230.31.159:9064'
p3976
aS'91.239.65.151:7808'
p3977
aS'183.207.228.52:85'
p3978
aS'191.33.125.176:8080'
p3979
aS'124.202.183.42:8118'
p3980
aS'118.244.253.23:80'
p3981
aS'14.218.186.156:9999'
p3982
aS'93.189.221.26:8080'
p3983
aS'182.206.26.34:80'
p3984
aS'112.3.202.45:8123'
p3985
aS'192.3.91.99:8080'
p3986
aS'123.12.55.243:8118'
p3987
aS'115.228.107.209:3128'
p3988
aS'222.190.116.151:8118'
p3989
aS'187.17.196.57:8080'
p3990
aS'122.96.59.106:80'
p3991
aS'174.36.215.81:3128'
p3992
aS'49.93.193.87:3128'
p3993
aS'194.106.166.65:8080'
p3994
aS'117.177.243.43:8081'
p3995
aS'118.161.101.125:80'
p3996
aS'27.41.3.146:8118'
p3997
aS'190.202.221.241:8080'
p3998
aS'121.62.234.121:8118'
p3999
aS'49.94.131.227:80'
p4000
aS'161.246.102.30:9064'
p4001
aS'14.115.64.96:9797'
p4002
aS'62.165.42.170:8080'
p4003
aS'49.91.26.125:80'
p4004
aS'49.94.160.61:3128'
p4005
aS'183.207.228.7:87'
p4006
aS'36.82.21.33:8080'
p4007
aS'49.90.8.247:3128'
p4008
aS'183.207.228.7:84'
p4009
aS'183.208.222.96:8123'
p4010
aS'119.103.6.158:3128'
p4011
aS'117.177.243.112:83'
p4012
aS'111.12.128.171:9000'
p4013
aS'103.226.138.229:8080'
p4014
aS'27.148.13.194:3128'
p4015
aS'54.172.70.197:80'
p4016
aS'117.177.243.38:80'
p4017
aS'117.177.243.111:81'
p4018
aS'114.38.72.79:9064'
p4019
aS'175.140.34.76:9064'
p4020
aS'183.222.155.128:8123'
p4021
aS'119.136.205.21:8118'
p4022
aS'201.243.162.59:8080'
p4023
aS'37.131.208.141:8080'
p4024
aS'183.222.154.128:8123'
p4025
aS'189.22.171.65:8080'
p4026
aS'178.150.93.227:8080'
p4027
aS'123.134.228.150:8118'
p4028
aS'61.166.149.204:8081'
p4029
aS'49.94.13.180:3128'
p4030
aS'183.222.159.137:8123'
p4031
aS'111.184.125.41:9064'
p4032
aS'124.202.181.6:8118'
p4033
aS'183.207.228.7:8441'
p4034
aS'101.255.94.106:8080'
p4035
aS'125.160.120.181:8080'
p4036
aS'183.203.208.170:8118'
p4037
aS'123.167.38.52:80'
p4038
aS'49.91.45.59:3128'
p4039
aS'183.220.247.173:8123'
p4040
aS'175.184.161.141:8090'
p4041
aS'153.101.236.41:8585'
p4042
aS'183.207.228.7:9711'
p4043
aS'49.91.24.192:80'
p4044
aS'49.93.2.235:80'
p4045
aS'117.176.9.253:8123'
p4046
aS'119.6.144.74:82'
p4047
aS'114.39.56.21:9064'
p4048
aS'202.102.27.83:80'
p4049
aS'183.207.228.22:80'
p4050
aS'49.91.44.214:3128'
p4051
aS'115.228.52.0:3128'
p4052
aS'186.88.5.110:9064'
p4053
aS'115.43.4.68:9064'
p4054
aS'190.77.23.217:8080'
p4055
aS'59.42.95.154:9797'
p4056
aS'58.63.22.89:9797'
p4057
aS'117.177.243.30:8080'
p4058
aS'118.96.42.150:8080'
p4059
aS'61.232.6.164:8081'
p4060
aS'123.192.139.96:9064'
p4061
aS'183.207.228.7:8174'
p4062
aS'49.94.153.192:3128'
p4063
aS'49.91.20.136:3128'
p4064
aS'183.224.1.30:80'
p4065
aS'183.207.228.7:8777'
p4066
aS'27.147.210.141:9064'
p4067
aS'113.73.90.118:9797'
p4068
aS'177.12.14.26:80'
p4069
aS'106.60.11.94:80'
p4070
aS'183.207.228.7:8106'
p4071
aS'112.104.135.16:9064'
p4072
aS'113.72.62.191:9797'
p4073
aS'124.8.2.157:9064'
p4074
aS'41.46.210.234:8080'
p4075
aS'49.94.158.66:3128'
p4076
aS'49.94.20.34:80'
p4077
aS'49.94.146.116:3128'
p4078
aS'49.91.30.179:3128'
p4079
aS'173.238.151.192:9064'
p4080
aS'113.140.104.226:80'
p4081
aS'110.229.65.12:8585'
p4082
aS'49.91.32.223:80'
p4083
aS'183.207.228.52:81'
p4084
aS'123.173.199.128:80'
p4085
aS'121.31.112.78:9999'
p4086
aS'118.244.253.22:80'
p4087
aS'95.211.99.112:8080'
p4088
aS'115.228.107.211:3128'
p4089
aS'114.40.73.132:8080'
p4090
aS'182.239.95.137:80'
p4091
aS'49.93.10.250:3128'
p4092
aS'61.227.155.233:9064'
p4093
aS'130.204.162.45:8080'
p4094
aS'117.177.243.47:80'
p4095
aS'113.27.216.169:3128'
p4096
aS'124.202.183.150:8118'
p4097
aS'116.203.52.161:9064'
p4098
aS'49.93.8.87:80'
p4099
aS'111.184.238.22:9064'
p4100
aS'49.91.11.112:3128'
p4101
aS'183.207.229.137:7070'
p4102
aS'110.176.50.105:80'
p4103
aS'49.94.22.96:80'
p4104
aS'190.36.185.12:9064'
p4105
aS'83.230.178.134:9064'
p4106
aS'49.94.155.171:3128'
p4107
aS'119.28.3.200:83'
p4108
aS'49.94.147.119:3128'
p4109
aS'81.4.234.44:8080'
p4110
aS'171.9.216.190:80'
p4111
aS'221.231.41.221:9999'
p4112
aS'189.85.20.137:8080'
p4113
aS'118.73.33.60:8118'
p4114
aS'189.89.159.122:80'
p4115
aS'117.37.234.237:80'
p4116
aS'203.124.46.148:8080'
p4117
aS'190.78.43.206:9064'
p4118
aS'183.207.228.7:8154'
p4119
aS'183.63.130.218:9797'
p4120
aS'123.236.255.13:9064'
p4121
aS'183.207.228.50:80'
p4122
aS'111.197.164.11:8118'
p4123
aS'36.41.36.191:80'
p4124
aS'120.198.243.50:80'
p4125
aS'111.206.61.28:80'
p4126
aS'49.94.20.238:3128'
p4127
aS'61.243.209.182:8118'
p4128
aS'218.65.209.125:80'
p4129
aS'49.90.6.185:80'
p4130
aS'49.94.141.114:3128'
p4131
aS'171.219.173.77:3128'
p4132
aS'111.254.97.30:9064'
p4133
aS'49.93.221.202:80'
p4134
aS'60.13.74.183:843'
p4135
aS'218.240.131.12:80'
p4136
aS'112.18.185.8:8123'
p4137
aS'190.38.135.46:9064'
p4138
aS'201.210.209.54:9064'
p4139
aS'183.207.227.9:8080'
p4140
aS'118.97.147.204:80'
p4141
aS'222.191.246.247:3128'
p4142
aS'203.172.227.45:8080'
p4143
aS'49.93.33.241:80'
p4144
aS'112.18.195.216:8123'
p4145
aS'202.101.96.154:8888'
p4146
aS'115.241.0.26:9064'
p4147
aS'180.119.117.6:8118'
p4148
aS'116.90.225.174:8080'
p4149
aS'190.74.181.185:9064'
p4150
aS'183.70.228.248:8118'
p4151
aS'125.39.68.130:80'
p4152
aS'201.211.120.39:9064'
p4153
aS'163.125.156.169:8888'
p4154
aS'163.125.196.58:9797'
p4155
aS'188.253.24.206:80'
p4156
aS'177.75.43.41:8080'
p4157
aS'124.123.112.92:9064'
p4158
aS'117.37.237.65:80'
p4159
aS'183.207.228.7:9000'
p4160
aS'61.141.186.236:9000'
p4161
aS'188.255.210.49:8080'
p4162
aS'114.66.8.35:9999'
p4163
aS'117.176.1.191:8123'
p4164
aS'37.228.134.52:8089'
p4165
aS'183.207.228.7:9791'
p4166
aS'36.41.45.226:80'
p4167
aS'113.97.195.105:9999'
p4168
aS'115.228.105.171:3128'
p4169
aS'111.253.78.232:9064'
p4170
aS'49.93.204.45:80'
p4171
aS'223.86.46.96:8123'
p4172
aS'183.207.228.7:8263'
p4173
aS'182.205.73.1:3128'
p4174
aS'49.93.221.136:3128'
p4175
aS'117.177.243.56:83'
p4176
aS'203.185.17.184:9064'
p4177
aS'117.88.162.234:8118'
p4178
aS'113.119.205.205:9999'
p4179
aS'49.93.206.109:80'
p4180
aS'183.207.228.7:8117'
p4181
aS'113.27.214.31:3128'
p4182
aS'183.33.33.226:9797'
p4183
aS'49.91.14.67:3128'
p4184
aS'36.61.86.213:3128'
p4185
aS'183.223.198.172:8123'
p4186
aS'113.76.212.216:9999'
p4187
aS'113.140.99.189:80'
p4188
aS'221.237.154.57:9999'
p4189
aS'36.41.36.51:3128'
p4190
aS'49.94.159.98:3128'
p4191
aS'111.12.128.172:8089'
p4192
aS'49.94.147.200:80'
p4193
aS'190.207.139.88:9064'
p4194
aS'186.88.178.163:9064'
p4195
aS'220.189.97.9:3128'
p4196
aS'183.207.228.7:9422'
p4197
aS'175.14.31.125:3128'
p4198
aS'188.138.247.175:8080'
p4199
aS'49.93.12.14:3128'
p4200
aS'183.221.208.47:8123'
p4201
aS'117.177.243.76:80'
p4202
aS'61.228.170.102:9064'
p4203
aS'14.96.79.69:9064'
p4204
aS'117.177.243.16:81'
p4205
aS'125.88.215.121:80'
p4206
aS'36.42.134.59:3128'
p4207
aS'113.87.123.221:9999'
p4208
aS'183.207.224.52:80'
p4209
aS'218.206.179.151:3128'
p4210
aS'203.203.24.152:9064'
p4211
aS'118.81.72.189:9797'
p4212
aS'124.202.182.218:8118'
p4213
aS'189.85.20.129:8080'
p4214
aS'49.93.222.190:3128'
p4215
aS'118.72.18.171:8118'
p4216
aS'117.177.243.67:83'
p4217
aS'14.24.234.17:3128'
p4218
aS'190.200.218.81:9064'
p4219
aS'113.204.69.38:8888'
p4220
aS'122.121.38.30:9064'
p4221
aS'111.10.91.78:8123'
p4222
aS'200.192.252.165:8080'
p4223
aS'200.30.82.174:8080'
p4224
aS'106.58.153.96:80'
p4225
aS'113.108.181.171:1234'
p4226
aS'190.200.226.14:9064'
p4227
aS'180.176.103.165:9064'
p4228
aS'116.31.7.239:9797'
p4229
aS'117.177.243.110:80'
p4230
aS'183.221.217.113:8123'
p4231
aS'186.93.195.29:9064'
p4232
aS'183.140.163.106:3128'
p4233
aS'218.241.3.102:80'
p4234
aS'117.177.243.43:8085'
p4235
aS'1.168.171.28:9064'
p4236
aS'183.140.165.179:3128'
p4237
aS'117.173.203.14:8123'
p4238
aS'183.207.228.50:86'
p4239
aS'183.207.228.52:84'
p4240
aS'183.223.202.37:8123'
p4241
aS'119.87.206.43:3128'
p4242
aS'49.94.23.46:80'
p4243
aS'120.198.243.48:80'
p4244
aS'124.202.181.50:8118'
p4245
aS'114.236.6.59:8118'
p4246
aS'183.222.152.14:8123'
p4247
aS'183.141.78.24:3128'
p4248
aS'190.37.138.253:9064'
p4249
aS'183.223.204.81:8123'
p4250
aS'78.235.49.138:9064'
p4251
aS'183.33.160.153:9797'
p4252
aS'123.119.62.44:8118'
p4253
aS'183.222.154.227:8123'
p4254
aS'183.207.228.54:83'
p4255
aS'117.177.243.35:8080'
p4256
aS'113.115.20.100:3128'
p4257
aS'49.91.34.244:80'
p4258
aS'171.9.219.201:80'
p4259
aS'36.42.154.175:3128'
p4260
aS'49.91.43.100:3128'
p4261
aS'190.121.148.159:8080'
p4262
aS'113.140.97.68:80'
p4263
aS'14.145.7.84:9797'
p4264
aS'201.159.17.228:8080'
p4265
aS'222.240.148.4:9090'
p4266
aS'183.207.228.7:9465'
p4267
aS'219.155.231.17:8118'
p4268
aS'183.207.224.48:80'
p4269
aS'110.176.84.160:3128'
p4270
aS'111.192.184.211:8118'
p4271
aS'49.94.149.234:80'
p4272
aS'182.201.1.118:8090'
p4273
aS'183.207.227.56:80'
p4274
aS'49.91.5.233:3128'
p4275
aS'119.141.122.222:9797'
p4276
aS'124.193.85.88:8080'
p4277
aS'36.236.147.123:9064'
p4278
aS'49.90.5.175:80'
p4279
aS'221.10.102.203:80'
p4280
aS'118.171.147.14:9064'
p4281
aS'183.223.204.180:8123'
p4282
aS'117.177.243.100:82'
p4283
aS'101.4.60.43:80'
p4284
aS'183.207.228.7:8138'
p4285
aS'49.207.32.83:9064'
p4286
aS'49.94.30.60:80'
p4287
aS'91.206.73.198:8080'
p4288
aS'49.94.30.144:80'
p4289
aS'111.255.70.181:9064'
p4290
aS'183.141.74.94:3128'
p4291
aS'186.67.31.212:8080'
p4292
aS'111.254.179.71:9064'
p4293
aS'202.147.4.251:80'
p4294
aS'183.207.228.7:9498'
p4295
aS'183.31.253.248:9999'
p4296
aS'95.130.168.58:8080'
p4297
aS'116.9.157.65:8118'
p4298
aS'183.140.160.251:3128'
p4299
aS'49.93.220.63:3128'
p4300
aS'118.114.98.125:8090'
p4301
aS'183.222.155.78:8123'
p4302
aS'119.90.127.2:80'
p4303
aS'183.207.229.138:80'
p4304
aS'117.176.25.21:8123'
p4305
aS'49.94.11.32:80'
p4306
aS'218.207.172.237:80'
p4307
aS'14.96.67.35:9064'
p4308
aS'49.94.138.224:3128'
p4309
aS'162.208.49.45:8089'
p4310
aS'201.55.186.37:8080'
p4311
aS'137.132.214.3:9064'
p4312
aS'58.251.78.71:8088'
p4313
aS'112.243.218.129:8585'
p4314
aS'113.247.187.198:80'
p4315
aS'49.93.221.121:80'
p4316
aS'124.88.67.13:843'
p4317
aS'202.70.37.86:8080'
p4318
aS'112.44.87.158:8123'
p4319
aS'110.176.20.25:80'
p4320
aS'218.207.16.42:8123'
p4321
aS'182.93.247.174:8080'
p4322
aS'202.119.25.69:9999'
p4323
aS'173.220.170.242:7004'
p4324
aS'49.94.162.132:3128'
p4325
aS'41.86.39.166:8080'
p4326
aS'201.242.83.27:9064'
p4327
aS'1.163.1.219:9064'
p4328
aS'49.93.35.189:80'
p4329
aS'49.91.35.184:80'
p4330
aS'49.91.43.190:80'
p4331
aS'117.177.243.39:84'
p4332
aS'185.23.129.226:8080'
p4333
aS'210.4.74.66:9064'
p4334
aS'182.234.23.3:9064'
p4335
aS'117.177.243.55:80'
p4336
aS'220.141.90.29:9064'
p4337
aS'49.93.224.113:3128'
p4338
aS'78.36.202.149:3129'
p4339
aS'111.12.128.171:8028'
p4340
aS'183.207.228.9:87'
p4341
aS'113.118.218.233:9000'
p4342
aS'177.11.71.4:8080'
p4343
aS'218.19.184.179:9797'
p4344
aS'219.217.227.93:3128'
p4345
aS'49.67.89.10:8118'
p4346
aS'183.222.159.143:8123'
p4347
aS'61.133.51.6:9797'
p4348
aS'182.120.138.191:8118'
p4349
aS'183.230.53.116:8123'
p4350
aS'119.63.137.50:8080'
p4351
aS'117.174.236.185:8123'
p4352
aS'123.173.221.126:80'
p4353
aS'110.183.98.32:8585'
p4354
aS'183.222.156.148:8123'
p4355
aS'49.90.40.212:80'
p4356
aS'221.130.199.222:80'
p4357
aS'14.154.200.111:9797'
p4358
aS'113.90.241.215:9797'
p4359
aS'201.163.96.102:8080'
p4360
aS'111.1.36.133:80'
p4361
aS'54.194.66.44:5555'
p4362
aS'111.40.194.38:80'
p4363
aS'111.248.21.29:9064'
p4364
aS'183.141.76.25:3128'
p4365
aS'54.68.127.31:8080'
p4366
aS'201.239.165.49:8080'
p4367
aS'183.207.228.7:8255'
p4368
aS'49.93.63.226:3128'
p4369
aS'49.94.152.248:3128'
p4370
aS'106.58.173.248:80'
p4371
aS'27.109.8.246:9064'
p4372
aS'113.140.118.82:3128'
p4373
aS'183.223.199.243:8123'
p4374
aS'118.168.40.155:9064'
p4375
aS'110.173.0.58:80'
p4376
aS'117.37.241.119:3128'
p4377
aS'49.94.5.64:80'
p4378
aS'82.117.174.4:8080'
p4379
aS'121.207.115.216:8118'
p4380
aS'183.207.228.7:8232'
p4381
aS'49.90.33.117:3128'
p4382
aS'49.94.24.53:3128'
p4383
aS'109.196.34.51:8080'
p4384
aS'89.207.129.43:1234'
p4385
aS'91.238.231.226:80'
p4386
aS'121.8.147.18:9797'
p4387
aS'117.10.26.242:9999'
p4388
aS'200.93.58.108:9064'
p4389
aS'117.177.243.29:85'
p4390
aS'183.203.208.173:8118'
p4391
aS'189.124.193.147:8080'
p4392
aS'49.91.44.214:80'
p4393
aS'80.250.201.252:8080'
p4394
aS'27.148.65.112:3128'
p4395
aS'202.114.144.15:8088'
p4396
aS'117.147.217.155:8123'
p4397
aS'117.177.243.111:8080'
p4398
aS'112.18.177.7:8123'
p4399
aS'161.246.76.236:9064'
p4400
aS'219.85.175.210:9064'
p4401
aS'117.177.243.56:8081'
p4402
aS'59.152.99.62:8080'
p4403
aS'113.128.0.184:8118'
p4404
aS'112.83.96.239:8118'
p4405
aS'123.238.136.116:9064'
p4406
aS'111.1.36.9:80'
p4407
aS'183.222.157.151:8123'
p4408
aS'49.90.0.215:80'
p4409
aS'211.162.0.163:80'
p4410
aS'185.9.151.135:8080'
p4411
aS'183.164.243.23:8118'
p4412
aS'183.207.228.7:8582'
p4413
aS'183.207.228.7:8808'
p4414
aS'49.94.14.194:80'
p4415
aS'60.195.222.71:8118'
p4416
aS'49.94.1.216:3128'
p4417
aS'183.207.227.40:8080'
p4418
aS'200.33.27.33:80'
p4419
aS'106.58.160.116:80'
p4420
aS'183.207.228.7:9090'
p4421
aS'112.82.223.29:80'
p4422
aS'49.93.207.116:80'
p4423
aS'36.42.130.149:80'
p4424
aS'49.91.24.201:3128'
p4425
aS'54.207.92.135:3333'
p4426
aS'49.94.156.41:3128'
p4427
aS'124.135.126.71:8118'
p4428
aS'175.184.162.72:8090'
p4429
aS'201.55.143.57:8080'
p4430
aS'183.179.210.214:9064'
p4431
aS'112.84.166.236:9999'
p4432
aS'220.142.89.18:9064'
p4433
aS'117.177.243.70:86'
p4434
aS'117.177.243.70:85'
p4435
aS'183.140.160.13:3128'
p4436
aS'49.90.33.212:80'
p4437
aS'183.207.228.7:8252'
p4438
aS'182.30.2.133:8080'
p4439
aS'186.216.194.81:8080'
p4440
aS'210.101.131.232:8080'
p4441
aS'183.222.152.201:8123'
p4442
aS'27.148.37.251:3128'
p4443
aS'106.58.116.212:80'
p4444
aS'115.228.55.69:3128'
p4445
aS'183.141.78.255:3128'
p4446
aS'49.90.10.215:3128'
p4447
aS'122.121.34.44:9064'
p4448
aS'62.93.64.50:8080'
p4449
aS'182.253.121.54:8080'
p4450
aS'49.93.15.58:80'
p4451
aS'111.206.81.248:80'
p4452
aS'117.176.0.164:8123'
p4453
aS'183.42.0.103:3128'
p4454
aS'106.38.188.227:80'
p4455
aS'49.94.152.70:3128'
p4456
aS'27.149.64.90:3128'
p4457
aS'113.141.128.65:80'
p4458
aS'183.207.228.7:8202'
p4459
aS'49.93.203.137:80'
p4460
aS'183.207.228.7:8160'
p4461
aS'190.36.88.192:9064'
p4462
aS'125.123.85.15:3128'
p4463
aS'117.177.243.40:8085'
p4464
aS'125.123.83.91:3128'
p4465
aS'186.95.157.129:9064'
p4466
aS'92.247.127.177:8080'
p4467
aS'14.114.246.206:9797'
p4468
aS'189.84.120.209:8080'
p4469
aS'49.94.144.68:3128'
p4470
aS'117.177.243.72:80'
p4471
aS'180.246.210.12:8080'
p4472
aS'117.177.243.48:80'
p4473
aS'180.141.203.212:9797'
p4474
aS'58.50.218.177:9797'
p4475
aS'118.96.46.180:8080'
p4476
aS'117.177.243.47:8085'
p4477
aS'117.175.118.194:8123'
p4478
aS'106.60.15.214:80'
p4479
aS'49.94.28.161:80'
p4480
aS'111.39.170.164:8123'
p4481
aS'49.94.2.47:80'
p4482
aS'49.94.11.32:3128'
p4483
aS'122.72.30.199:80'
p4484
aS'177.12.104.164:8080'
p4485
aS'114.233.174.117:8118'
p4486
aS'49.86.12.78:8585'
p4487
aS'121.227.11.241:8118'
p4488
aS'220.191.80.183:9797'
p4489
aS'203.196.136.248:9064'
p4490
aS'49.94.14.137:3128'
p4491
aS'200.25.238.157:8080'
p4492
aS'49.94.130.69:80'
p4493
aS'121.20.92.69:8118'
p4494
aS'49.94.15.101:3128'
p4495
aS'183.207.229.137:8888'
p4496
aS'54.68.216.1:80'
p4497
aS'183.207.228.7:8045'
p4498
aS'180.246.204.65:8080'
p4499
aS'36.60.21.105:80'
p4500
aS'36.250.69.4:80'
p4501
aS'137.135.166.225:8128'
p4502
aS'122.225.106.36:80'
p4503
aS'49.91.23.229:80'
p4504
aS'112.105.59.56:9064'
p4505
aS'120.29.157.30:8080'
p4506
aS'177.200.81.90:8080'
p4507
aS'49.93.231.11:80'
p4508
aS'117.177.243.36:8082'
p4509
aS'113.141.131.70:3128'
p4510
aS'219.134.78.53:8118'
p4511
aS'115.29.184.17:82'
p4512
aS'202.148.27.122:8080'
p4513
aS'190.201.212.247:9064'
p4514
aS'49.93.30.65:3128'
p4515
aS'163.125.70.249:8888'
p4516
aS'117.177.243.102:85'
p4517
aS'106.60.17.246:80'
p4518
aS'194.105.237.72:3000'
p4519
aS'14.145.7.140:9797'
p4520
aS'117.146.116.74:84'
p4521
aS'117.177.243.35:85'
p4522
aS'183.221.146.20:8123'
p4523
aS'183.220.194.138:8123'
p4524
aS'202.28.2.167:9064'
p4525
aS'117.177.243.14:85'
p4526
aS'106.51.172.14:9064'
p4527
aS'49.94.141.226:3128'
p4528
aS'49.94.35.14:3128'
p4529
aS'112.26.162.4:8123'
p4530
aS'183.220.240.230:8123'
p4531
aS'221.130.199.226:80'
p4532
aS'117.177.243.36:84'
p4533
aS'36.96.49.122:8118'
p4534
aS'203.190.41.170:8080'
p4535
aS'121.237.36.112:8118'
p4536
aS'190.234.209.113:8080'
p4537
aS'125.88.215.122:80'
p4538
aS'49.93.38.51:80'
p4539
aS'49.94.160.40:80'
p4540
aS'183.156.127.118:8118'
p4541
aS'94.78.92.46:8080'
p4542
aS'49.94.30.144:3128'
p4543
aS'113.27.146.11:80'
p4544
aS'171.92.19.209:9000'
p4545
aS'182.253.74.0:8080'
p4546
aS'183.33.158.127:9797'
p4547
aS'187.7.215.91:8080'
p4548
aS'183.207.228.7:8169'
p4549
aS'113.110.216.94:9999'
p4550
aS'117.37.255.220:80'
p4551
aS'117.177.243.30:80'
p4552
aS'181.168.130.23:9064'
p4553
aS'111.40.194.108:80'
p4554
aS'117.37.243.46:3128'
p4555
aS'36.42.135.100:80'
p4556
aS'124.202.181.182:8118'
p4557
aS'101.63.160.120:9064'
p4558
aS'59.99.250.72:9064'
p4559
aS'113.127.59.167:80'
p4560
aS'202.155.18.156:8080'
p4561
aS'111.192.58.212:9000'
p4562
aS'117.177.243.54:80'
p4563
aS'201.248.240.84:9064'
p4564
aS'200.192.253.151:8080'
p4565
aS'61.133.51.6:9999'
p4566
aS'49.94.14.144:80'
p4567
aS'49.90.35.31:80'
p4568
aS'183.207.237.18:84'
p4569
aS'14.98.38.73:9064'
p4570
aS'119.252.173.242:8080'
p4571
aS'222.132.29.10:8080'
p4572
aS'77.41.171.170:8000'
p4573
aS'124.202.182.206:8118'
p4574
aS'183.207.229.138:7070'
p4575
aS'219.246.90.162:3128'
p4576
aS'183.207.228.7:8207'
p4577
aS'218.35.189.173:9064'
p4578
aS'49.94.13.166:80'
p4579
aS'183.207.228.7:8628'
p4580
aS'117.177.243.113:85'
p4581
aS'117.177.243.106:80'
p4582
aS'115.208.119.248:8118'
p4583
aS'124.11.132.81:9064'
p4584
aS'36.80.162.91:8080'
p4585
aS'183.141.77.50:3128'
p4586
aS'118.97.149.42:8080'
p4587
aS'49.91.42.53:3128'
p4588
aS'111.164.74.151:8118'
p4589
aS'58.251.240.62:9999'
p4590
aS'112.142.128.230:8080'
p4591
aS'49.94.130.167:80'
p4592
aS'117.176.1.143:8123'
p4593
aS'120.198.243.115:8888'
p4594
aS'111.12.128.166:80'
p4595
aS'49.94.162.94:80'
p4596
aS'113.141.130.132:80'
p4597
aS'112.253.6.182:8080'
p4598
aS'49.90.36.161:80'
p4599
aS'103.27.24.113:8090'
p4600
aS'190.122.186.229:8080'
p4601
aS'49.94.8.43:3128'
p4602
aS'183.207.228.7:8027'
p4603
aS'183.69.3.4:8118'
p4604
aS'24.227.16.74:9064'
p4605
aS'49.94.37.58:3128'
p4606
aS'49.94.138.153:3128'
p4607
aS'5.190.86.5:8080'
p4608
aS'210.51.3.42:8089'
p4609
aS'114.100.84.213:8118'
p4610
aS'183.207.228.7:8013'
p4611
aS'62.212.74.222:8080'
p4612
aS'190.79.211.120:9064'
p4613
aS'119.4.12.122:8090'
p4614
aS'49.91.23.176:80'
p4615
aS'183.207.228.7:8100'
p4616
aS'1.181.32.71:3128'
p4617
aS'117.37.243.46:80'
p4618
aS'223.99.254.99:86'
p4619
aS'49.93.160.122:80'
p4620
aS'1.181.49.156:80'
p4621
aS'183.31.253.248:9797'
p4622
aS'183.220.246.246:8118'
p4623
aS'121.33.220.234:9797'
p4624
aS'119.103.83.197:3128'
p4625
aS'190.151.10.226:8080'
p4626
aS'180.215.184.121:9064'
p4627
aS'115.46.103.86:80'
p4628
aS'183.207.228.9:83'
p4629
aS'113.112.149.51:3128'
p4630
aS'54.172.207.221:3128'
p4631
aS'183.207.229.139:8080'
p4632
aS'106.58.124.207:80'
p4633
aS'60.206.246.66:8001'
p4634
aS'111.12.128.171:83'
p4635
aS'61.144.68.100:9797'
p4636
aS'117.176.29.234:8123'
p4637
aS'49.91.3.202:80'
p4638
aS'123.8.190.100:8118'
p4639
aS'183.220.247.23:8123'
p4640
aS'117.177.243.50:82'
p4641
aS'112.26.162.6:8123'
p4642
aS'223.29.196.159:9064'
p4643
aS'49.94.13.68:80'
p4644
aS'113.94.228.42:8118'
p4645
aS'183.207.229.138:88'
p4646
aS'202.29.229.120:8080'
p4647
aS'49.91.42.220:3128'
p4648
aS'120.10.43.250:8118'
p4649
aS'36.42.130.149:3128'
p4650
aS'36.42.151.190:80'
p4651
aS'94.198.135.79:80'
p4652
aS'49.90.21.8:3128'
p4653
aS'120.197.53.199:8080'
p4654
aS'50.206.39.140:8080'
p4655
aS'202.53.170.134:8080'
p4656
aS'122.96.59.106:83'
p4657
aS'105.237.103.107:8080'
p4658
aS'106.58.66.89:80'
p4659
aS'202.166.205.179:8080'
p4660
aS'117.177.243.41:8081'
p4661
aS'190.77.156.40:9064'
p4662
aS'187.4.26.3:8080'
p4663
aS'41.191.27.97:8080'
p4664
aS'183.207.228.7:8005'
p4665
aS'49.93.40.84:3128'
p4666
aS'190.203.250.183:9064'
p4667
aS'183.207.228.7:8068'
p4668
aS'190.122.185.218:8080'
p4669
aS'36.41.37.94:80'
p4670
aS'182.39.95.8:8118'
p4671
aS'140.138.24.231:9064'
p4672
aS'201.248.101.199:9064'
p4673
aS'58.242.108.141:8118'
p4674
aS'180.123.48.58:8118'
p4675
aS'218.64.148.120:9000'
p4676
aS'106.33.70.253:80'
p4677
aS'58.67.136.92:9797'
p4678
aS'1.168.176.1:9064'
p4679
aS'117.177.243.54:81'
p4680
aS'117.177.243.104:81'
p4681
aS'14.25.66.233:3128'
p4682
aS'201.57.249.2:8080'
p4683
aS'27.51.49.72:9064'
p4684
aS'115.228.105.158:3128'
p4685
aS'121.62.61.18:8118'
p4686
aS'115.28.177.134:8118'
p4687
aS'111.12.128.171:8082'
p4688
aS'183.207.228.7:8019'
p4689
aS'49.94.33.105:80'
p4690
aS'154.73.44.89:8080'
p4691
aS'183.220.246.170:8123'
p4692
aS'183.207.232.119:8080'
p4693
aS'58.59.68.91:9797'
p4694
aS'94.158.175.226:8080'
p4695
aS'183.207.228.54:80'
p4696
aS'14.145.4.173:9797'
p4697
aS'117.177.243.56:81'
p4698
aS'49.90.10.38:80'
p4699
aS'183.207.227.14:8080'
p4700
aS'81.30.165.50:8080'
p4701
aS'183.14.4.158:9999'
p4702
aS'183.207.229.138:8080'
p4703
aS'113.67.195.4:9797'
p4704
aS'190.203.114.207:9064'
p4705
aS'177.83.211.107:9064'
p4706
aS'114.41.187.64:8888'
p4707
aS'61.226.196.100:9064'
p4708
aS'212.232.52.56:80'
p4709
aS'203.172.214.142:8080'
p4710
aS'185.72.156.19:7808'
p4711
aS'183.207.228.22:86'
p4712
aS'118.232.208.49:9064'
p4713
aS'121.20.198.193:8585'
p4714
aS'186.225.53.149:8080'
p4715
aS'49.94.150.229:3128'
p4716
aS'113.140.104.148:3128'
p4717
aS'183.222.157.146:8123'
p4718
aS'124.81.125.117:9064'
p4719
aS'183.221.217.215:8123'
p4720
aS'113.124.143.147:8118'
p4721
aS'222.35.68.193:9000'
p4722
aS'49.94.152.156:3128'
p4723
aS'101.4.136.34:9999'
p4724
aS'190.193.211.230:9064'
p4725
aS'110.181.115.146:8118'
p4726
aS'212.220.115.175:8080'
p4727
aS'171.218.14.244:3128'
p4728
aS'36.81.24.189:8080'
p4729
aS'183.221.217.199:8123'
p4730
aS'61.227.76.18:8088'
p4731
aS'183.207.224.51:81'
p4732
aS'117.177.243.57:83'
p4733
aS'123.30.170.197:80'
p4734
aS'27.147.194.29:9064'
p4735
aS'111.1.36.164:80'
p4736
aS'49.93.226.210:3128'
p4737
aS'49.91.19.129:80'
p4738
aS'60.214.180.133:9000'
p4739
aS'91.243.170.194:9090'
p4740
aS'115.228.50.56:3128'
p4741
aS'61.156.3.166:80'
p4742
aS'49.94.35.111:3128'
p4743
aS'114.79.140.1:9064'
p4744
aS'190.97.242.127:9064'
p4745
aS'49.94.139.39:80'
p4746
aS'49.90.31.96:3128'
p4747
aS'182.201.0.112:8090'
p4748
aS'117.177.243.24:85'
p4749
aS'61.70.105.188:9064'
p4750
aS'175.106.11.154:80'
p4751
aS'49.91.45.104:80'
p4752
aS'36.42.137.150:3128'
p4753
aS'60.248.109.228:8080'
p4754
aS'182.100.221.1:8118'
p4755
aS'190.78.249.5:9064'
p4756
aS'124.14.6.254:9797'
p4757
aS'101.109.74.116:8080'
p4758
aS'122.225.106.35:80'
p4759
aS'117.177.243.43:85'
p4760
aS'103.17.173.49:8080'
p4761
aS'117.177.243.16:86'
p4762
aS'186.92.0.230:9064'
p4763
aS'60.206.239.195:8118'
p4764
aS'27.44.157.24:9999'
p4765
aS'46.16.226.10:8080'
p4766
aS'114.232.213.37:8118'
p4767
aS'117.177.243.39:85'
p4768
aS'14.145.4.46:9797'
p4769
aS'195.114.129.173:3128'
p4770
aS'183.87.61.226:8080'
p4771
aS'61.163.17.158:9797'
p4772
aS'117.177.243.53:81'
p4773
aS'117.177.243.69:85'
p4774
aS'117.10.233.159:8118'
p4775
aS'41.77.12.60:8080'
p4776
aS'49.91.15.9:3128'
p4777
aS'42.201.234.18:8080'
p4778
aS'49.94.141.99:80'
p4779
aS'218.24.179.148:80'
p4780
aS'181.67.219.123:8080'
p4781
aS'223.16.72.74:9064'
p4782
aS'111.10.165.188:8123'
p4783
aS'183.207.229.137:6969'
p4784
aS'49.93.206.109:3128'
p4785
aS'117.28.80.9:8118'
p4786
aS'203.190.1.145:9064'
p4787
aS'117.177.243.106:81'
p4788
aS'36.41.38.214:80'
p4789
aS'115.241.54.35:9064'
p4790
aS'14.218.94.39:9797'
p4791
aS'106.58.77.27:80'
p4792
aS'202.69.106.197:8080'
p4793
aS'117.139.45.22:8123'
p4794
aS'183.220.105.37:8123'
p4795
aS'202.153.130.214:80'
p4796
aS'165.132.25.78:8080'
p4797
aS'114.104.78.79:8118'
p4798
aS'123.119.168.149:9000'
p4799
aS'115.228.55.181:3128'
p4800
aS'49.93.225.185:3128'
p4801
aS'117.177.243.57:8085'
p4802
aS'223.86.32.59:8123'
p4803
aS'49.94.160.40:3128'
p4804
aS'220.142.131.114:9064'
p4805
aS'117.175.49.72:8123'
p4806
aS'121.243.51.107:8080'
p4807
aS'121.31.112.86:9797'
p4808
aS'61.135.177.131:80'
p4809
aS'183.207.227.52:80'
p4810
aS'106.197.222.84:9064'
p4811
aS'123.63.95.45:9797'
p4812
aS'122.96.59.106:843'
p4813
aS'49.91.12.237:80'
p4814
aS'186.224.64.7:8080'
p4815
aS'183.207.228.7:8302'
p4816
aS'220.168.151.195:9797'
p4817
aS'36.41.35.180:80'
p4818
aS'182.153.200.7:9064'
p4819
aS'88.119.195.205:8080'
p4820
aS'118.97.149.45:8080'
p4821
aS'61.141.186.58:9999'
p4822
aS'49.93.16.172:3128'
p4823
aS'183.207.229.138:8888'
p4824
aS'120.86.121.134:8080'
p4825
aS'183.207.229.19:9090'
p4826
aS'117.177.243.30:8082'
p4827
aS'111.119.212.138:8080'
p4828
aS'183.222.154.243:8123'
p4829
aS'128.199.88.200:8080'
p4830
aS'49.91.4.246:80'
p4831
aS'191.6.165.86:8080'
p4832
aS'124.202.183.222:8118'
p4833
aS'59.41.239.13:9797'
p4834
aS'27.131.47.131:8080'
p4835
aS'124.202.182.174:8118'
p4836
aS'219.145.233.71:8118'
p4837
aS'183.207.228.7:8151'
p4838
aS'117.177.243.51:80'
p4839
aS'180.108.97.140:8118'
p4840
aS'223.15.96.53:80'
p4841
aS'42.117.71.152:9064'
p4842
aS'117.177.243.68:84'
p4843
aS'183.83.207.19:9064'
p4844
aS'211.144.81.68:18000'
p4845
aS'110.49.210.113:80'
p4846
aS'174.32.138.206:87'
p4847
aS'218.173.191.199:9064'
p4848
aS'183.207.227.41:8080'
p4849
aS'106.60.71.45:80'
p4850
aS'115.238.225.25:80'
p4851
aS'203.172.175.212:9064'
p4852
aS'182.235.166.20:9064'
p4853
aS'222.160.89.170:8118'
p4854
aS'116.7.27.61:9797'
p4855
aS'183.141.79.211:3128'
p4856
aS'182.118.31.110:80'
p4857
aS'202.138.248.9:8080'
p4858
aS'190.77.220.141:9064'
p4859
aS'117.92.106.22:8118'
p4860
aS'183.207.228.7:8102'
p4861
aS'49.91.20.109:80'
p4862
aS'183.207.228.9:85'
p4863
aS'190.122.186.200:8080'
p4864
aS'91.238.231.226:9090'
p4865
aS'183.141.77.229:3128'
p4866
aS'117.37.233.185:3128'
p4867
aS'114.39.94.169:9064'
p4868
aS'106.34.221.253:80'
p4869
aS'117.177.243.112:86'
p4870
aS'186.212.137.24:8080'
p4871
aS'49.93.27.87:80'
p4872
aS'221.10.102.199:83'
p4873
aS'180.244.29.216:8080'
p4874
aS'183.222.153.59:8123'
p4875
aS'182.93.233.198:8080'
p4876
aS'183.207.237.18:82'
p4877
aS'119.183.251.109:8118'
p4878
aS'115.46.103.86:9999'
p4879
aS'110.44.119.93:8080'
p4880
aS'117.37.243.58:80'
p4881
aS'49.93.204.45:3128'
p4882
aS'54.220.117.175:80'
p4883
aS'183.207.228.9:86'
p4884
aS'220.229.27.196:9064'
p4885
aS'115.241.24.141:9064'
p4886
aS'106.60.23.169:80'
p4887
aS'218.75.205.72:9797'
p4888
aS'182.201.1.135:8090'
p4889
aS'60.206.153.177:8001'
p4890
aS'183.223.218.240:8123'
p4891
aS'119.96.233.85:8090'
p4892
aS'183.222.153.43:8123'
p4893
aS'183.207.237.18:83'
p4894
aS'202.59.132.4:8080'
p4895
aS'191.241.76.53:8080'
p4896
aS'110.152.108.190:8118'
p4897
aS'223.86.65.188:8123'
p4898
aS'49.94.130.70:3128'
p4899
aS'117.177.243.26:83'
p4900
aS'183.207.228.7:9989'
p4901
aS'49.93.216.94:3128'
p4902
aS'183.207.228.9:82'
p4903
aS'103.27.24.114:8080'
p4904
aS'112.95.84.146:9797'
p4905
aS'49.94.1.216:80'
p4906
aS'117.177.243.83:80'
p4907
aS'49.94.150.159:80'
p4908
aS'183.207.227.21:80'
p4909
aS'180.152.243.182:9797'
p4910
aS'119.136.34.67:8080'
p4911
aS'186.95.219.111:9064'
p4912
aS'171.82.25.155:80'
p4913
aS'36.83.142.52:8080'
p4914
aS'182.253.121.153:8080'
p4915
aS'183.141.73.42:3128'
p4916
aS'117.206.201.25:9064'
p4917
aS'117.10.26.225:9999'
p4918
aS'223.67.211.189:8123'
p4919
aS'223.99.189.102:8090'
p4920
aS'97.77.104.22:80'
p4921
aS'183.207.228.7:8219'
p4922
aS'49.91.29.81:3128'
p4923
aS'183.207.228.7:8178'
p4924
aS'183.220.240.234:8123'
p4925
aS'88.255.149.105:8080'
p4926
aS'49.91.44.190:3128'
p4927
aS'211.139.45.149:8123'
p4928
aS'42.97.75.17:80'
p4929
aS'71.229.106.227:9064'
p4930
aS'49.94.13.91:3128'
p4931
aS'119.110.75.154:8080'
p4932
aS'183.207.228.7:8011'
p4933
aS'110.176.168.79:3128'
p4934
aS'113.233.154.8:8080'
p4935
aS'124.82.24.187:8080'
p4936
aS'113.219.239.3:3128'
p4937
aS'183.207.229.130:83'
p4938
aS'177.97.29.67:8080'
p4939
aS'124.202.182.198:8118'
p4940
aS'117.177.243.111:86'
p4941
aS'177.200.84.209:8080'
p4942
aS'49.94.20.53:80'
p4943
aS'27.149.86.109:3128'
p4944
aS'36.235.227.183:9064'
p4945
aS'118.97.147.204:8080'
p4946
aS'122.6.132.69:8118'
p4947
aS'222.87.129.218:80'
p4948
aS'120.2.63.91:8118'
p4949
aS'111.1.36.6:80'
p4950
aS'59.41.239.20:9797'
p4951
aS'182.74.250.98:9064'
p4952
aS'183.207.228.52:80'
p4953
aS'113.140.114.81:3128'
p4954
aS'183.11.136.209:9000'
p4955
aS'117.162.40.96:8123'
p4956
aS'113.140.104.29:3128'
p4957
aS'120.131.132.66:9999'
p4958
aS'183.33.17.237:9797'
p4959
aS'221.124.70.71:9064'
p4960
aS'219.140.137.245:8090'
p4961
aS'180.108.198.52:8088'
p4962
aS'222.81.103.185:8118'
p4963
aS'221.222.211.42:8118'
p4964
aS'117.173.121.26:8123'
p4965
aS'75.143.187.246:9064'
p4966
aS'121.31.112.93:9797'
p4967
aS'186.212.156.69:8080'
p4968
aS'14.27.66.185:3128'
p4969
aS'119.6.144.74:843'
p4970
aS'223.64.52.16:8123'
p4971
aS'218.64.127.217:8123'
p4972
aS'171.38.205.170:8118'
p4973
aS'101.86.9.85:9797'
p4974
aS'95.160.34.98:8080'
p4975
aS'186.90.34.44:9064'
p4976
aS'46.170.253.34:8080'
p4977
aS'113.140.114.81:80'
p4978
aS'183.207.228.7:8069'
p4979
aS'183.207.228.7:8244'
p4980
aS'212.126.99.122:8080'
p4981
aS'190.252.4.219:9064'
p4982
aS'223.223.139.89:9064'
p4983
aS'182.253.168.41:8080'
p4984
aS'49.94.140.247:80'
p4985
aS'182.73.106.67:8080'
p4986
aS'106.58.169.51:80'
p4987
aS'187.85.82.153:8080'
p4988
aS'60.172.78.51:8118'
p4989
aS'183.207.228.7:9864'
p4990
aS'110.176.61.191:80'
p4991
aS'92.87.49.1:8080'
p4992
aS'82.117.166.254:8080'
p4993
aS'220.142.125.242:9064'
p4994
aS'117.177.243.4:80'
p4995
aS'116.3.36.92:8118'
p4996
aS'49.94.17.171:80'
p4997
aS'118.97.130.10:8080'
p4998
aS'183.207.224.50:85'
p4999
aS'180.161.66.168:8118'
p5000
aS'111.206.61.26:80'
p5001
aS'221.193.255.48:9999'
p5002
aS'201.219.172.240:9064'
p5003
aS'49.91.1.61:3128'
p5004
aS'42.3.146.51:9064'
p5005
aS'112.95.104.207:9999'
p5006
aS'183.221.217.143:8123'
p5007
aS'49.90.10.216:80'
p5008
aS'14.153.121.140:9999'
p5009
aS'124.202.182.182:8118'
p5010
aS'49.94.12.116:80'
p5011
aS'183.207.227.19:80'
p5012
aS'111.161.126.98:80'
p5013
aS'173.204.239.116:808'
p5014
aS'117.177.243.58:82'
p5015
aS'183.207.237.18:81'
p5016
aS'183.62.58.250:9797'
p5017
aS'183.222.156.56:8123'
p5018
aS'218.77.248.111:8118'
p5019
aS'202.179.71.113:8080'
p5020
aS'36.42.131.243:3128'
p5021
aS'222.124.34.210:9064'
p5022
aS'117.177.243.112:85'
p5023
aS'82.166.34.48:8085'
p5024
aS'183.207.228.7:8063'
p5025
aS'183.33.12.162:9797'
p5026
aS'200.169.142.73:80'
p5027
aS'182.93.224.38:8080'
p5028
aS'14.25.249.178:3128'
p5029
aS'200.223.155.35:8080'
p5030
aS'183.220.105.97:8123'
p5031
aS'115.228.56.161:3128'
p5032
aS'49.90.3.95:3128'
p5033
aS'54.148.229.147:8080'
p5034
a.